ARM GAS  C:\Users\elias\AppData\Local\Temp\ccoh8jMR.s 			page 1


   1              		.syntax unified
   2              		.cpu cortex-m3
   3              		.fpu softvfp
   4              		.eabi_attribute 20, 1
   5              		.eabi_attribute 21, 1
   6              		.eabi_attribute 23, 3
   7              		.eabi_attribute 24, 1
   8              		.eabi_attribute 25, 1
   9              		.eabi_attribute 26, 1
  10              		.eabi_attribute 30, 6
  11              		.eabi_attribute 34, 1
  12              		.eabi_attribute 18, 4
  13              		.thumb
  14              		.syntax unified
  15              		.file	"main.c"
  16              		.text
  17              	.Ltext0:
  18              		.cfi_sections	.debug_frame
  19              		.comm	buffer,100,4
  20              		.comm	degree,1,1
  21              		.comm	coeficiente,255,4
  22              		.comm	x,2,2
  23              		.comm	result,8,8
  24              		.section	.text.getLine,"ax",%progbits
  25              		.align	2
  26              		.global	getLine
  27              		.thumb
  28              		.thumb_func
  29              		.type	getLine, %function
  30              	getLine:
  31              	.LFB64:
  32              		.file 1 "main.c"
   1:main.c        **** #include "project.h"
   2:main.c        **** #include <stdio.h>
   3:main.c        **** #include <stdlib.h>
   4:main.c        **** #include <math.h>
   5:main.c        **** 
   6:main.c        **** 
   7:main.c        **** #define MAX_BUFF 100
   8:main.c        **** #define MAX_DEGREE 255
   9:main.c        **** char buffer[MAX_BUFF];
  10:main.c        **** u_int8_t degree;
  11:main.c        **** int8_t coeficiente[MAX_DEGREE];
  12:main.c        **** int16_t x;
  13:main.c        **** int64_t result;
  14:main.c        **** 
  15:main.c        **** //FUNCIONES GENERALES
  16:main.c        **** 
  17:main.c        **** /*
  18:main.c        **** Función que lee una línea por el puerto serial.
  19:main.c        **** Parámetros:
  20:main.c        ****     buf -> dirección del buffer de caracteres recibidos
  21:main.c        ****     tamBuf -> cantidad de posiciones disponible en el buffer
  22:main.c        ****     getchar -> función que lee un caracter del puerto UART
  23:main.c        ****     putchar -> función que escribe un caracter por el puerto UART
  24:main.c        **** Retorno:
  25:main.c        ****     Ninguno
ARM GAS  C:\Users\elias\AppData\Local\Temp\ccoh8jMR.s 			page 2


  26:main.c        **** */
  27:main.c        **** void getLine (char *buf, int tamBuf, uint8_t (*getcharl)(), void (*putcharl)(uint8_t)) {
  33              		.loc 1 27 0
  34              		.cfi_startproc
  35              		@ args = 0, pretend = 0, frame = 24
  36              		@ frame_needed = 1, uses_anonymous_args = 0
  37 0000 80B5     		push	{r7, lr}
  38              		.cfi_def_cfa_offset 8
  39              		.cfi_offset 7, -8
  40              		.cfi_offset 14, -4
  41 0002 86B0     		sub	sp, sp, #24
  42              		.cfi_def_cfa_offset 32
  43 0004 00AF     		add	r7, sp, #0
  44              		.cfi_def_cfa_register 7
  45 0006 F860     		str	r0, [r7, #12]
  46 0008 B960     		str	r1, [r7, #8]
  47 000a 7A60     		str	r2, [r7, #4]
  48 000c 3B60     		str	r3, [r7]
  28:main.c        ****     int i;
  29:main.c        ****     uint8 c;
  30:main.c        ****    
  31:main.c        ****     for (i = 0; i < tamBuf -1; ) {
  49              		.loc 1 31 0
  50 000e 0023     		movs	r3, #0
  51 0010 7B61     		str	r3, [r7, #20]
  52 0012 15E0     		b	.L2
  53              	.L5:
  32:main.c        ****         if ((c = getcharl()) != 0){
  54              		.loc 1 32 0
  55 0014 7B68     		ldr	r3, [r7, #4]
  56 0016 9847     		blx	r3
  57 0018 0346     		mov	r3, r0
  58 001a FB74     		strb	r3, [r7, #19]
  59 001c FB7C     		ldrb	r3, [r7, #19]	@ zero_extendqisi2
  60 001e 002B     		cmp	r3, #0
  61 0020 0ED0     		beq	.L2
  33:main.c        ****             putcharl(c);
  62              		.loc 1 33 0
  63 0022 FA7C     		ldrb	r2, [r7, #19]	@ zero_extendqisi2
  64 0024 3B68     		ldr	r3, [r7]
  65 0026 1046     		mov	r0, r2
  66 0028 9847     		blx	r3
  34:main.c        ****             if (c == '\r') break;   // salimos si recibimos un enter
  67              		.loc 1 34 0
  68 002a FB7C     		ldrb	r3, [r7, #19]	@ zero_extendqisi2
  69 002c 0D2B     		cmp	r3, #13
  70 002e 0DD0     		beq	.L6
  35:main.c        ****             buf[i++] = c;
  71              		.loc 1 35 0
  72 0030 7B69     		ldr	r3, [r7, #20]
  73 0032 5A1C     		adds	r2, r3, #1
  74 0034 7A61     		str	r2, [r7, #20]
  75 0036 1A46     		mov	r2, r3
  76 0038 FB68     		ldr	r3, [r7, #12]
  77 003a 1344     		add	r3, r3, r2
  78 003c FA7C     		ldrb	r2, [r7, #19]
  79 003e 1A70     		strb	r2, [r3]
ARM GAS  C:\Users\elias\AppData\Local\Temp\ccoh8jMR.s 			page 3


  80              	.L2:
  31:main.c        ****         if ((c = getcharl()) != 0){
  81              		.loc 1 31 0 discriminator 1
  82 0040 BB68     		ldr	r3, [r7, #8]
  83 0042 5A1E     		subs	r2, r3, #1
  84 0044 7B69     		ldr	r3, [r7, #20]
  85 0046 9A42     		cmp	r2, r3
  86 0048 E4DC     		bgt	.L5
  87 004a 00E0     		b	.L4
  88              	.L6:
  34:main.c        ****             if (c == '\r') break;   // salimos si recibimos un enter
  89              		.loc 1 34 0
  90 004c 00BF     		nop
  91              	.L4:
  36:main.c        ****         }
  37:main.c        ****     }
  38:main.c        ****     buf[i] = '\0';
  92              		.loc 1 38 0
  93 004e 7B69     		ldr	r3, [r7, #20]
  94 0050 FA68     		ldr	r2, [r7, #12]
  95 0052 1344     		add	r3, r3, r2
  96 0054 0022     		movs	r2, #0
  97 0056 1A70     		strb	r2, [r3]
  39:main.c        ****     putcharl('\n');
  98              		.loc 1 39 0
  99 0058 3B68     		ldr	r3, [r7]
 100 005a 0A20     		movs	r0, #10
 101 005c 9847     		blx	r3
  40:main.c        **** }
 102              		.loc 1 40 0
 103 005e 00BF     		nop
 104 0060 1837     		adds	r7, r7, #24
 105              		.cfi_def_cfa_offset 8
 106 0062 BD46     		mov	sp, r7
 107              		.cfi_def_cfa_register 13
 108              		@ sp needed
 109 0064 80BD     		pop	{r7, pc}
 110              		.cfi_endproc
 111              	.LFE64:
 112              		.size	getLine, .-getLine
 113 0066 00BF     		.section	.rodata
 114              		.align	2
 115              	.LC0:
 116 0000 25686400 		.ascii	"%hd\000"
 117              		.section	.text.getInt,"ax",%progbits
 118              		.align	2
 119              		.global	getInt
 120              		.thumb
 121              		.thumb_func
 122              		.type	getInt, %function
 123              	getInt:
 124              	.LFB65:
  41:main.c        **** 
  42:main.c        **** int16_t getInt(char *buf,u_int max_buf)
  43:main.c        **** {
 125              		.loc 1 43 0
 126              		.cfi_startproc
ARM GAS  C:\Users\elias\AppData\Local\Temp\ccoh8jMR.s 			page 4


 127              		@ args = 0, pretend = 0, frame = 16
 128              		@ frame_needed = 1, uses_anonymous_args = 0
 129 0000 80B5     		push	{r7, lr}
 130              		.cfi_def_cfa_offset 8
 131              		.cfi_offset 7, -8
 132              		.cfi_offset 14, -4
 133 0002 84B0     		sub	sp, sp, #16
 134              		.cfi_def_cfa_offset 24
 135 0004 00AF     		add	r7, sp, #0
 136              		.cfi_def_cfa_register 7
 137 0006 7860     		str	r0, [r7, #4]
 138 0008 3960     		str	r1, [r7]
  44:main.c        ****     u_int8_t salir = 0;
 139              		.loc 1 44 0
 140 000a 0023     		movs	r3, #0
 141 000c FB73     		strb	r3, [r7, #15]
  45:main.c        ****     int16_t result = 0;
 142              		.loc 1 45 0
 143 000e 0023     		movs	r3, #0
 144 0010 BB81     		strh	r3, [r7, #12]	@ movhi
 145              	.L8:
  46:main.c        ****     do
  47:main.c        ****     {
  48:main.c        ****         getLine(buf,max_buf,PC_GetChar,PC_PutChar);
 146              		.loc 1 48 0 discriminator 1
 147 0012 3968     		ldr	r1, [r7]
 148 0014 0C4B     		ldr	r3, .L10
 149 0016 0D4A     		ldr	r2, .L10+4
 150 0018 7868     		ldr	r0, [r7, #4]
 151 001a FFF7FEFF 		bl	getLine
  49:main.c        ****         //u_int16_t aux = strtoul(buf,NULL,10);
  50:main.c        ****         salir = sscanf(buf,"%hd",&result);
 152              		.loc 1 50 0 discriminator 1
 153 001e 07F10C03 		add	r3, r7, #12
 154 0022 1A46     		mov	r2, r3
 155 0024 0A49     		ldr	r1, .L10+8
 156 0026 7868     		ldr	r0, [r7, #4]
 157 0028 FFF7FEFF 		bl	sscanf
 158 002c 0346     		mov	r3, r0
 159 002e FB73     		strb	r3, [r7, #15]
  51:main.c        ****     }while(salir != 1);
 160              		.loc 1 51 0 discriminator 1
 161 0030 FB7B     		ldrb	r3, [r7, #15]	@ zero_extendqisi2
 162 0032 012B     		cmp	r3, #1
 163 0034 EDD1     		bne	.L8
  52:main.c        ****     buf[0] = '\0';
 164              		.loc 1 52 0
 165 0036 7B68     		ldr	r3, [r7, #4]
 166 0038 0022     		movs	r2, #0
 167 003a 1A70     		strb	r2, [r3]
  53:main.c        ****     return result;
 168              		.loc 1 53 0
 169 003c B7F90C30 		ldrsh	r3, [r7, #12]
  54:main.c        **** }
 170              		.loc 1 54 0
 171 0040 1846     		mov	r0, r3
 172 0042 1037     		adds	r7, r7, #16
ARM GAS  C:\Users\elias\AppData\Local\Temp\ccoh8jMR.s 			page 5


 173              		.cfi_def_cfa_offset 8
 174 0044 BD46     		mov	sp, r7
 175              		.cfi_def_cfa_register 13
 176              		@ sp needed
 177 0046 80BD     		pop	{r7, pc}
 178              	.L11:
 179              		.align	2
 180              	.L10:
 181 0048 00000000 		.word	PC_PutChar
 182 004c 00000000 		.word	PC_GetChar
 183 0050 00000000 		.word	.LC0
 184              		.cfi_endproc
 185              	.LFE65:
 186              		.size	getInt, .-getInt
 187              		.section	.rodata
 188              		.align	2
 189              	.LC1:
 190 0004 47726164 		.ascii	"Grado del polinomio?\000"
 190      6F206465 
 190      6C20706F 
 190      6C696E6F 
 190      6D696F3F 
 191              		.section	.text.getDegree,"ax",%progbits
 192              		.align	2
 193              		.global	getDegree
 194              		.thumb
 195              		.thumb_func
 196              		.type	getDegree, %function
 197              	getDegree:
 198              	.LFB66:
  55:main.c        **** 
  56:main.c        **** 
  57:main.c        **** 
  58:main.c        **** //FUNCIONES PARA EL PROGRAMA 
  59:main.c        **** void getDegree()
  60:main.c        **** {
 199              		.loc 1 60 0
 200              		.cfi_startproc
 201              		@ args = 0, pretend = 0, frame = 8
 202              		@ frame_needed = 1, uses_anonymous_args = 0
 203 0000 80B5     		push	{r7, lr}
 204              		.cfi_def_cfa_offset 8
 205              		.cfi_offset 7, -8
 206              		.cfi_offset 14, -4
 207 0002 82B0     		sub	sp, sp, #8
 208              		.cfi_def_cfa_offset 16
 209 0004 00AF     		add	r7, sp, #0
 210              		.cfi_def_cfa_register 7
  61:main.c        ****     u_int8_t salir = 0;
 211              		.loc 1 61 0
 212 0006 0023     		movs	r3, #0
 213 0008 FB71     		strb	r3, [r7, #7]
 214              	.L14:
  62:main.c        ****     do
  63:main.c        ****     {   PC_PutString("Grado del polinomio?");
 215              		.loc 1 63 0
 216 000a 0C48     		ldr	r0, .L15
ARM GAS  C:\Users\elias\AppData\Local\Temp\ccoh8jMR.s 			page 6


 217 000c FFF7FEFF 		bl	PC_PutString
  64:main.c        ****         degree = (u_int8_t)getInt(buffer,MAX_BUFF-1);
 218              		.loc 1 64 0
 219 0010 6321     		movs	r1, #99
 220 0012 0B48     		ldr	r0, .L15+4
 221 0014 FFF7FEFF 		bl	getInt
 222 0018 0346     		mov	r3, r0
 223 001a DAB2     		uxtb	r2, r3
 224 001c 094B     		ldr	r3, .L15+8
 225 001e 1A70     		strb	r2, [r3]
  65:main.c        ****         if (0<= degree && degree<=MAX_DEGREE-1) //creo que no es necesario pero bueno
 226              		.loc 1 65 0
 227 0020 084B     		ldr	r3, .L15+8
 228 0022 1B78     		ldrb	r3, [r3]	@ zero_extendqisi2
 229 0024 FF2B     		cmp	r3, #255
 230 0026 01D0     		beq	.L13
  66:main.c        ****             salir = 1;    
 231              		.loc 1 66 0
 232 0028 0123     		movs	r3, #1
 233 002a FB71     		strb	r3, [r7, #7]
 234              	.L13:
  67:main.c        ****     }while (salir != 0);
 235              		.loc 1 67 0
 236 002c FB79     		ldrb	r3, [r7, #7]	@ zero_extendqisi2
 237 002e 002B     		cmp	r3, #0
 238 0030 EBD1     		bne	.L14
  68:main.c        ****     
  69:main.c        **** }
 239              		.loc 1 69 0
 240 0032 00BF     		nop
 241 0034 0837     		adds	r7, r7, #8
 242              		.cfi_def_cfa_offset 8
 243 0036 BD46     		mov	sp, r7
 244              		.cfi_def_cfa_register 13
 245              		@ sp needed
 246 0038 80BD     		pop	{r7, pc}
 247              	.L16:
 248 003a 00BF     		.align	2
 249              	.L15:
 250 003c 04000000 		.word	.LC1
 251 0040 00000000 		.word	buffer
 252 0044 00000000 		.word	degree
 253              		.cfi_endproc
 254              	.LFE66:
 255              		.size	getDegree, .-getDegree
 256              		.section	.rodata
 257 0019 000000   		.align	2
 258              	.LC2:
 259 001c 436F6566 		.ascii	"Coeficiente de x^%i?\000"
 259      69636965 
 259      6E746520 
 259      64652078 
 259      5E25693F 
 260              		.section	.text.getCoef,"ax",%progbits
 261              		.align	2
 262              		.global	getCoef
 263              		.thumb
ARM GAS  C:\Users\elias\AppData\Local\Temp\ccoh8jMR.s 			page 7


 264              		.thumb_func
 265              		.type	getCoef, %function
 266              	getCoef:
 267              	.LFB67:
  70:main.c        **** 
  71:main.c        **** void getCoef()
  72:main.c        **** {
 268              		.loc 1 72 0
 269              		.cfi_startproc
 270              		@ args = 0, pretend = 0, frame = 8
 271              		@ frame_needed = 1, uses_anonymous_args = 0
 272 0000 80B5     		push	{r7, lr}
 273              		.cfi_def_cfa_offset 8
 274              		.cfi_offset 7, -8
 275              		.cfi_offset 14, -4
 276 0002 82B0     		sub	sp, sp, #8
 277              		.cfi_def_cfa_offset 16
 278 0004 00AF     		add	r7, sp, #0
 279              		.cfi_def_cfa_register 7
  73:main.c        ****     u_int8_t aux = 0;
 280              		.loc 1 73 0
 281 0006 0023     		movs	r3, #0
 282 0008 BB71     		strb	r3, [r7, #6]
 283              	.LBB2:
  74:main.c        ****     for(u_int8_t i = degree;;)
 284              		.loc 1 74 0
 285 000a 114B     		ldr	r3, .L23
 286 000c 1B78     		ldrb	r3, [r3]
 287 000e FB71     		strb	r3, [r7, #7]
 288              	.L20:
  75:main.c        ****     {
  76:main.c        ****         snprintf(buffer,MAX_BUFF ,"Coeficiente de x^%i?",i);
 289              		.loc 1 76 0
 290 0010 FB79     		ldrb	r3, [r7, #7]	@ zero_extendqisi2
 291 0012 104A     		ldr	r2, .L23+4
 292 0014 6421     		movs	r1, #100
 293 0016 1048     		ldr	r0, .L23+8
 294 0018 FFF7FEFF 		bl	snprintf
  77:main.c        ****         PC_PutString(buffer);
 295              		.loc 1 77 0
 296 001c 0E48     		ldr	r0, .L23+8
 297 001e FFF7FEFF 		bl	PC_PutString
  78:main.c        ****         aux = (u_int8_t)getInt(buffer,MAX_BUFF);
 298              		.loc 1 78 0
 299 0022 6421     		movs	r1, #100
 300 0024 0C48     		ldr	r0, .L23+8
 301 0026 FFF7FEFF 		bl	getInt
 302 002a 0346     		mov	r3, r0
 303 002c BB71     		strb	r3, [r7, #6]
  79:main.c        ****         if(0 <= aux && aux <= MAX_DEGREE) coeficiente[i] = aux;
 304              		.loc 1 79 0
 305 002e FB79     		ldrb	r3, [r7, #7]	@ zero_extendqisi2
 306 0030 97F90610 		ldrsb	r1, [r7, #6]
 307 0034 094A     		ldr	r2, .L23+12
 308 0036 D154     		strb	r1, [r2, r3]
  80:main.c        ****         if(i == 0) break;
 309              		.loc 1 80 0
ARM GAS  C:\Users\elias\AppData\Local\Temp\ccoh8jMR.s 			page 8


 310 0038 FB79     		ldrb	r3, [r7, #7]	@ zero_extendqisi2
 311 003a 002B     		cmp	r3, #0
 312 003c 03D0     		beq	.L22
  81:main.c        ****         else i--;
 313              		.loc 1 81 0
 314 003e FB79     		ldrb	r3, [r7, #7]	@ zero_extendqisi2
 315 0040 013B     		subs	r3, r3, #1
 316 0042 FB71     		strb	r3, [r7, #7]
  82:main.c        ****            
  83:main.c        ****     
  84:main.c        ****     }
 317              		.loc 1 84 0
 318 0044 E4E7     		b	.L20
 319              	.L22:
  80:main.c        ****         else i--;
 320              		.loc 1 80 0
 321 0046 00BF     		nop
 322              	.LBE2:
  85:main.c        **** }
 323              		.loc 1 85 0
 324 0048 00BF     		nop
 325 004a 0837     		adds	r7, r7, #8
 326              		.cfi_def_cfa_offset 8
 327 004c BD46     		mov	sp, r7
 328              		.cfi_def_cfa_register 13
 329              		@ sp needed
 330 004e 80BD     		pop	{r7, pc}
 331              	.L24:
 332              		.align	2
 333              	.L23:
 334 0050 00000000 		.word	degree
 335 0054 1C000000 		.word	.LC2
 336 0058 00000000 		.word	buffer
 337 005c 00000000 		.word	coeficiente
 338              		.cfi_endproc
 339              	.LFE67:
 340              		.size	getCoef, .-getCoef
 341              		.section	.rodata
 342 0031 000000   		.align	2
 343              	.LC3:
 344 0034 50756E74 		.ascii	"Punto a evaluar?\000"
 344      6F206120 
 344      6576616C 
 344      7561723F 
 344      00
 345              		.global	__aeabi_i2d
 346              		.global	__aeabi_ui2d
 347              		.global	__aeabi_dmul
 348              		.global	__aeabi_l2d
 349              		.global	__aeabi_dadd
 350              		.global	__aeabi_d2lz
 351              		.section	.text.evalX,"ax",%progbits
 352              		.align	2
 353              		.global	evalX
 354              		.thumb
 355              		.thumb_func
 356              		.type	evalX, %function
ARM GAS  C:\Users\elias\AppData\Local\Temp\ccoh8jMR.s 			page 9


 357              	evalX:
 358              	.LFB68:
  86:main.c        **** 
  87:main.c        **** void evalX()
  88:main.c        **** {
 359              		.loc 1 88 0
 360              		.cfi_startproc
 361              		@ args = 0, pretend = 0, frame = 8
 362              		@ frame_needed = 1, uses_anonymous_args = 0
 363 0000 2DE9F043 		push	{r4, r5, r6, r7, r8, r9, lr}
 364              		.cfi_def_cfa_offset 28
 365              		.cfi_offset 4, -28
 366              		.cfi_offset 5, -24
 367              		.cfi_offset 6, -20
 368              		.cfi_offset 7, -16
 369              		.cfi_offset 8, -12
 370              		.cfi_offset 9, -8
 371              		.cfi_offset 14, -4
 372 0004 83B0     		sub	sp, sp, #12
 373              		.cfi_def_cfa_offset 40
 374 0006 00AF     		add	r7, sp, #0
 375              		.cfi_def_cfa_register 7
 376              	.L31:
  89:main.c        ****     do
  90:main.c        ****     {
  91:main.c        ****         PC_PutString("Punto a evaluar?");
 377              		.loc 1 91 0
 378 0008 3448     		ldr	r0, .L35
 379 000a FFF7FEFF 		bl	PC_PutString
  92:main.c        ****         x = getInt(buffer,MAX_BUFF);
 380              		.loc 1 92 0
 381 000e 6421     		movs	r1, #100
 382 0010 3348     		ldr	r0, .L35+4
 383 0012 FFF7FEFF 		bl	getInt
 384 0016 0346     		mov	r3, r0
 385 0018 1A46     		mov	r2, r3
 386 001a 324B     		ldr	r3, .L35+8
 387 001c 1A80     		strh	r2, [r3]	@ movhi
  93:main.c        ****         if(x == -999) break; //salir de eval
 388              		.loc 1 93 0
 389 001e 314B     		ldr	r3, .L35+8
 390 0020 B3F90030 		ldrsh	r3, [r3]
 391 0024 304A     		ldr	r2, .L35+12
 392 0026 9342     		cmp	r3, r2
 393 0028 51D0     		beq	.L33
  94:main.c        ****         
  95:main.c        ****         result = 0;
 394              		.loc 1 95 0
 395 002a 304A     		ldr	r2, .L35+16
 396 002c 4FF00003 		mov	r3, #0
 397 0030 4FF00004 		mov	r4, #0
 398 0034 C2E90034 		strd	r3, [r2]
 399              	.LBB3:
  96:main.c        ****         for(u_int8_t i = degree;; i--)
 400              		.loc 1 96 0
 401 0038 2D4B     		ldr	r3, .L35+20
 402 003a 1B78     		ldrb	r3, [r3]
ARM GAS  C:\Users\elias\AppData\Local\Temp\ccoh8jMR.s 			page 10


 403 003c FB71     		strb	r3, [r7, #7]
 404              	.L30:
  97:main.c        ****         {
  98:main.c        ****             result += coeficiente[i]*pow(x,i);
 405              		.loc 1 98 0
 406 003e FB79     		ldrb	r3, [r7, #7]	@ zero_extendqisi2
 407 0040 2C4A     		ldr	r2, .L35+24
 408 0042 D356     		ldrsb	r3, [r2, r3]
 409 0044 1846     		mov	r0, r3
 410 0046 FFF7FEFF 		bl	__aeabi_i2d
 411 004a 0446     		mov	r4, r0
 412 004c 0D46     		mov	r5, r1
 413 004e 254B     		ldr	r3, .L35+8
 414 0050 B3F90030 		ldrsh	r3, [r3]
 415 0054 1846     		mov	r0, r3
 416 0056 FFF7FEFF 		bl	__aeabi_i2d
 417 005a 8046     		mov	r8, r0
 418 005c 8946     		mov	r9, r1
 419 005e FB79     		ldrb	r3, [r7, #7]	@ zero_extendqisi2
 420 0060 1846     		mov	r0, r3
 421 0062 FFF7FEFF 		bl	__aeabi_ui2d
 422 0066 0246     		mov	r2, r0
 423 0068 0B46     		mov	r3, r1
 424 006a 4046     		mov	r0, r8
 425 006c 4946     		mov	r1, r9
 426 006e FFF7FEFF 		bl	pow
 427 0072 0246     		mov	r2, r0
 428 0074 0B46     		mov	r3, r1
 429 0076 2046     		mov	r0, r4
 430 0078 2946     		mov	r1, r5
 431 007a FFF7FEFF 		bl	__aeabi_dmul
 432 007e 0346     		mov	r3, r0
 433 0080 0C46     		mov	r4, r1
 434 0082 1D46     		mov	r5, r3
 435 0084 2646     		mov	r6, r4
 436 0086 194B     		ldr	r3, .L35+16
 437 0088 18CB     		ldmia	r3, {r3-r4}
 438 008a 1846     		mov	r0, r3
 439 008c 2146     		mov	r1, r4
 440 008e FFF7FEFF 		bl	__aeabi_l2d
 441 0092 2A46     		mov	r2, r5
 442 0094 3346     		mov	r3, r6
 443 0096 FFF7FEFF 		bl	__aeabi_dadd
 444 009a 0346     		mov	r3, r0
 445 009c 0C46     		mov	r4, r1
 446 009e 1846     		mov	r0, r3
 447 00a0 2146     		mov	r1, r4
 448 00a2 FFF7FEFF 		bl	__aeabi_d2lz
 449 00a6 0346     		mov	r3, r0
 450 00a8 0C46     		mov	r4, r1
 451 00aa 104A     		ldr	r2, .L35+16
 452 00ac C2E90034 		strd	r3, [r2]
  99:main.c        ****             if(i == 0) break;
 453              		.loc 1 99 0
 454 00b0 FB79     		ldrb	r3, [r7, #7]	@ zero_extendqisi2
 455 00b2 002B     		cmp	r3, #0
 456 00b4 03D0     		beq	.L34
ARM GAS  C:\Users\elias\AppData\Local\Temp\ccoh8jMR.s 			page 11


  96:main.c        ****         for(u_int8_t i = degree;; i--)
 457              		.loc 1 96 0
 458 00b6 FB79     		ldrb	r3, [r7, #7]	@ zero_extendqisi2
 459 00b8 013B     		subs	r3, r3, #1
 460 00ba FB71     		strb	r3, [r7, #7]
 100:main.c        ****         }
 461              		.loc 1 100 0
 462 00bc BFE7     		b	.L30
 463              	.L34:
  99:main.c        ****             if(i == 0) break;
 464              		.loc 1 99 0
 465 00be 00BF     		nop
 466              	.LBE3:
 101:main.c        ****         
 102:main.c        ****         
 103:main.c        ****     }while(x != -999);
 467              		.loc 1 103 0
 468 00c0 084B     		ldr	r3, .L35+8
 469 00c2 B3F90030 		ldrsh	r3, [r3]
 470 00c6 084A     		ldr	r2, .L35+12
 471 00c8 9342     		cmp	r3, r2
 472 00ca 9DD1     		bne	.L31
 104:main.c        **** }
 473              		.loc 1 104 0
 474 00cc 00E0     		b	.L27
 475              	.L33:
  93:main.c        ****         
 476              		.loc 1 93 0
 477 00ce 00BF     		nop
 478              	.L27:
 479              		.loc 1 104 0
 480 00d0 00BF     		nop
 481 00d2 0C37     		adds	r7, r7, #12
 482              		.cfi_def_cfa_offset 28
 483 00d4 BD46     		mov	sp, r7
 484              		.cfi_def_cfa_register 13
 485              		@ sp needed
 486 00d6 BDE8F083 		pop	{r4, r5, r6, r7, r8, r9, pc}
 487              	.L36:
 488 00da 00BF     		.align	2
 489              	.L35:
 490 00dc 34000000 		.word	.LC3
 491 00e0 00000000 		.word	buffer
 492 00e4 00000000 		.word	x
 493 00e8 19FCFFFF 		.word	-999
 494 00ec 00000000 		.word	result
 495 00f0 00000000 		.word	degree
 496 00f4 00000000 		.word	coeficiente
 497              		.cfi_endproc
 498              	.LFE68:
 499              		.size	evalX, .-evalX
 500              		.section	.text.main,"ax",%progbits
 501              		.align	2
 502              		.global	main
 503              		.thumb
 504              		.thumb_func
 505              		.type	main, %function
ARM GAS  C:\Users\elias\AppData\Local\Temp\ccoh8jMR.s 			page 12


 506              	main:
 507              	.LFB69:
 105:main.c        **** 
 106:main.c        **** int main(void)
 107:main.c        **** {
 508              		.loc 1 107 0
 509              		.cfi_startproc
 510              		@ args = 0, pretend = 0, frame = 0
 511              		@ frame_needed = 1, uses_anonymous_args = 0
 512 0000 80B5     		push	{r7, lr}
 513              		.cfi_def_cfa_offset 8
 514              		.cfi_offset 7, -8
 515              		.cfi_offset 14, -4
 516 0002 00AF     		add	r7, sp, #0
 517              		.cfi_def_cfa_register 7
 108:main.c        ****     CyGlobalIntEnable; /* Enable global interrupts. */
 518              		.loc 1 108 0
 519              		.syntax unified
 520              	@ 108 "main.c" 1
 521 0004 62B6     		CPSIE   i
 522              	@ 0 "" 2
 109:main.c        **** 
 110:main.c        ****     /* Place your initialization/startup code here (e.g. MyInst_Start()) */
 111:main.c        ****     PC_Start();
 523              		.loc 1 111 0
 524              		.thumb
 525              		.syntax unified
 526 0006 FFF7FEFF 		bl	PC_Start
 527              	.L38:
 112:main.c        ****     for(;;)
 113:main.c        ****     {
 114:main.c        ****         getDegree();
 528              		.loc 1 114 0 discriminator 1
 529 000a FFF7FEFF 		bl	getDegree
 115:main.c        ****         getCoef();
 530              		.loc 1 115 0 discriminator 1
 531 000e FFF7FEFF 		bl	getCoef
 116:main.c        ****         evalX();
 532              		.loc 1 116 0 discriminator 1
 533 0012 FFF7FEFF 		bl	evalX
 117:main.c        ****         
 118:main.c        ****         
 119:main.c        ****     }
 534              		.loc 1 119 0 discriminator 1
 535 0016 F8E7     		b	.L38
 536              		.cfi_endproc
 537              	.LFE69:
 538              		.size	main, .-main
 539              		.text
 540              	.Letext0:
 541              		.file 2 "c:\\program files (x86)\\cypress\\psoc creator\\4.4\\psoc creator\\import\\gnu\\arm\\5.4.
 542              		.file 3 "c:\\program files (x86)\\cypress\\psoc creator\\4.4\\psoc creator\\import\\gnu\\arm\\5.4.
 543              		.file 4 "Generated_Source\\PSoC5/cytypes.h"
 544              		.file 5 "c:\\program files (x86)\\cypress\\psoc creator\\4.4\\psoc creator\\import\\gnu\\arm\\5.4.
 545              		.file 6 "Generated_Source\\PSoC5/core_cm3.h"