ARM GAS  C:\Users\elias\AppData\Local\Temp\ccwvGe8W.s 			page 1


   1              		.syntax unified
   2              		.cpu cortex-m3
   3              		.fpu softvfp
   4              		.eabi_attribute 20, 1
   5              		.eabi_attribute 21, 1
   6              		.eabi_attribute 23, 3
   7              		.eabi_attribute 24, 1
   8              		.eabi_attribute 25, 1
   9              		.eabi_attribute 26, 1
  10              		.eabi_attribute 30, 1
  11              		.eabi_attribute 34, 1
  12              		.eabi_attribute 18, 4
  13              		.thumb
  14              		.syntax unified
  15              		.file	"main.c"
  16              		.text
  17              	.Ltext0:
  18              		.cfi_sections	.debug_frame
  19              		.section	.text.getLine,"ax",%progbits
  20              		.align	2
  21              		.global	getLine
  22              		.thumb
  23              		.thumb_func
  24              		.type	getLine, %function
  25              	getLine:
  26              	.LFB64:
  27              		.file 1 "main.c"
   1:main.c        **** /* ========================================
   2:main.c        ****  *
   3:main.c        ****  * Copyright YOUR COMPANY, THE YEAR
   4:main.c        ****  * All Rights Reserved
   5:main.c        ****  * UNPUBLISHED, LICENSED SOFTWARE.
   6:main.c        ****  *
   7:main.c        ****  * CONFIDENTIAL AND PROPRIETARY INFORMATION
   8:main.c        ****  * WHICH IS THE PROPERTY OF your company.
   9:main.c        ****  *
  10:main.c        ****  * ========================================
  11:main.c        **** */
  12:main.c        **** #include "project.h"
  13:main.c        **** #include <stdio.h>
  14:main.c        **** 
  15:main.c        **** 
  16:main.c        **** void getLine (char *buf, int tamBuf, uint8_t (*getcharl)(), void (*putcharl)(uint8_t)) {
  28              		.loc 1 16 0
  29              		.cfi_startproc
  30              		@ args = 0, pretend = 0, frame = 0
  31              		@ frame_needed = 0, uses_anonymous_args = 0
  32              	.LVL0:
  33 0000 2DE9F843 		push	{r3, r4, r5, r6, r7, r8, r9, lr}
  34              		.cfi_def_cfa_offset 32
  35              		.cfi_offset 3, -32
  36              		.cfi_offset 4, -28
  37              		.cfi_offset 5, -24
  38              		.cfi_offset 6, -20
  39              		.cfi_offset 7, -16
  40              		.cfi_offset 8, -12
  41              		.cfi_offset 9, -8
ARM GAS  C:\Users\elias\AppData\Local\Temp\ccwvGe8W.s 			page 2


  42              		.cfi_offset 14, -4
  43 0004 8146     		mov	r9, r0
  44 0006 0E46     		mov	r6, r1
  45 0008 1746     		mov	r7, r2
  46 000a 9846     		mov	r8, r3
  47              	.LVL1:
  17:main.c        ****     int i;
  18:main.c        ****     uint8 c;
  19:main.c        ****    
  20:main.c        ****     for (i = 0; i < tamBuf -1; ) {
  48              		.loc 1 20 0
  49 000c 0024     		movs	r4, #0
  50 000e 08E0     		b	.L3
  51              	.LVL2:
  52              	.L5:
  21:main.c        ****         if ((c = getcharl()) != 0){
  53              		.loc 1 21 0
  54 0010 B847     		blx	r7
  55              	.LVL3:
  56 0012 0546     		mov	r5, r0
  57 0014 28B1     		cbz	r0, .L3
  22:main.c        ****             putcharl(c);
  58              		.loc 1 22 0
  59 0016 C047     		blx	r8
  60              	.LVL4:
  23:main.c        ****             if (c == '\r') break;   // salimos si recibimos un enter
  61              		.loc 1 23 0
  62 0018 0D2D     		cmp	r5, #13
  63 001a 05D0     		beq	.L4
  64              	.LVL5:
  24:main.c        ****             buf[i++] = c;
  65              		.loc 1 24 0
  66 001c 09F80450 		strb	r5, [r9, r4]
  67 0020 0134     		adds	r4, r4, #1
  68              	.LVL6:
  69              	.L3:
  20:main.c        ****         if ((c = getcharl()) != 0){
  70              		.loc 1 20 0 discriminator 1
  71 0022 731E     		subs	r3, r6, #1
  72 0024 9C42     		cmp	r4, r3
  73 0026 F3DB     		blt	.L5
  74              	.L4:
  25:main.c        ****         }
  26:main.c        ****     }
  27:main.c        ****     buf[i] = '\0';
  75              		.loc 1 27 0
  76 0028 0023     		movs	r3, #0
  77 002a 09F80430 		strb	r3, [r9, r4]
  28:main.c        ****     putcharl('\n');
  78              		.loc 1 28 0
  79 002e 0A20     		movs	r0, #10
  80 0030 C047     		blx	r8
  81              	.LVL7:
  82 0032 BDE8F883 		pop	{r3, r4, r5, r6, r7, r8, r9, pc}
  83              		.cfi_endproc
  84              	.LFE64:
  85              		.size	getLine, .-getLine
ARM GAS  C:\Users\elias\AppData\Local\Temp\ccwvGe8W.s 			page 3


  86 0036 00BF     		.section	.text.fibonacciN,"ax",%progbits
  87              		.align	2
  88              		.global	fibonacciN
  89              		.thumb
  90              		.thumb_func
  91              		.type	fibonacciN, %function
  92              	fibonacciN:
  93              	.LFB65:
  29:main.c        **** }
  30:main.c        **** 
  31:main.c        **** 
  32:main.c        **** extern u_int32_t fibonacciN_A(u_int16_t );
  33:main.c        **** 
  34:main.c        **** 
  35:main.c        **** 
  36:main.c        **** u_int32_t fibonacciN(u_int16_t N)
  37:main.c        **** {
  94              		.loc 1 37 0
  95              		.cfi_startproc
  96              		@ args = 0, pretend = 0, frame = 0
  97              		@ frame_needed = 0, uses_anonymous_args = 0
  98              		@ link register save eliminated.
  99              	.LVL8:
  38:main.c        ****   if(N == 1 || N == 2)
 100              		.loc 1 38 0
 101 0000 431E     		subs	r3, r0, #1
 102 0002 9BB2     		uxth	r3, r3
 103 0004 012B     		cmp	r3, #1
 104 0006 0DD9     		bls	.L11
  37:main.c        ****   if(N == 1 || N == 2)
 105              		.loc 1 37 0
 106 0008 10B4     		push	{r4}
 107              		.cfi_def_cfa_offset 4
 108              		.cfi_offset 4, -4
 109 000a 0323     		movs	r3, #3
 110 000c 0122     		movs	r2, #1
 111 000e 1146     		mov	r1, r2
 112 0010 04E0     		b	.L9
 113              	.LVL9:
 114              	.L10:
 115              	.LBB2:
  39:main.c        ****     return 1;
  40:main.c        ****     
  41:main.c        ****   u_int32_t n1 = 1,n2 = 1,aux;
  42:main.c        ****   for(u_int16_t i = 3; i<=N;i++)
  43:main.c        ****   {
  44:main.c        ****       aux = n1;
  45:main.c        ****       n1 = n2;
  46:main.c        ****       n2 = n2+aux;
 116              		.loc 1 46 0 discriminator 3
 117 0012 8C18     		adds	r4, r1, r2
 118              	.LVL10:
  42:main.c        ****   {
 119              		.loc 1 42 0 discriminator 3
 120 0014 0133     		adds	r3, r3, #1
 121              	.LVL11:
 122 0016 9BB2     		uxth	r3, r3
ARM GAS  C:\Users\elias\AppData\Local\Temp\ccwvGe8W.s 			page 4


 123              	.LVL12:
  45:main.c        ****       n2 = n2+aux;
 124              		.loc 1 45 0 discriminator 3
 125 0018 1146     		mov	r1, r2
 126              	.LVL13:
 127              		.loc 1 46 0 discriminator 3
 128 001a 2246     		mov	r2, r4
 129              	.LVL14:
 130              	.L9:
  42:main.c        ****   {
 131              		.loc 1 42 0 discriminator 1
 132 001c 8342     		cmp	r3, r0
 133 001e F8D9     		bls	.L10
 134              	.LBE2:
  47:main.c        ****   }
  48:main.c        ****   return n2;
 135              		.loc 1 48 0
 136 0020 1046     		mov	r0, r2
 137              	.LVL15:
 138              	.LBB3:
 139 0022 01E0     		b	.L8
 140              	.LVL16:
 141              	.L11:
 142              		.cfi_def_cfa_offset 0
 143              		.cfi_restore 4
 144              	.LBE3:
  39:main.c        ****     
 145              		.loc 1 39 0
 146 0024 0120     		movs	r0, #1
 147              	.LVL17:
 148 0026 7047     		bx	lr
 149              	.LVL18:
 150              	.L8:
 151              		.cfi_def_cfa_offset 4
 152              		.cfi_offset 4, -4
  49:main.c        **** }
 153              		.loc 1 49 0
 154 0028 10BC     		pop	{r4}
 155              		.cfi_restore 4
 156              		.cfi_def_cfa_offset 0
 157 002a 7047     		bx	lr
 158              		.cfi_endproc
 159              	.LFE65:
 160              		.size	fibonacciN, .-fibonacciN
 161              		.section	.text.contVocal,"ax",%progbits
 162              		.align	2
 163              		.global	contVocal
 164              		.thumb
 165              		.thumb_func
 166              		.type	contVocal, %function
 167              	contVocal:
 168              	.LFB66:
  50:main.c        **** 
  51:main.c        **** u_int16_t contVocal_A(char*);
  52:main.c        **** 
  53:main.c        **** u_int16_t contVocal(char *v)
  54:main.c        **** {
ARM GAS  C:\Users\elias\AppData\Local\Temp\ccwvGe8W.s 			page 5


 169              		.loc 1 54 0
 170              		.cfi_startproc
 171              		@ args = 0, pretend = 0, frame = 0
 172              		@ frame_needed = 0, uses_anonymous_args = 0
 173              		@ link register save eliminated.
 174              	.LVL19:
  55:main.c        ****     u_int16_t N = 0;
  56:main.c        ****     char letter=*v++;
 175              		.loc 1 56 0
 176 0000 421C     		adds	r2, r0, #1
 177              	.LVL20:
 178 0002 0378     		ldrb	r3, [r0]	@ zero_extendqisi2
 179              	.LVL21:
  55:main.c        ****     u_int16_t N = 0;
 180              		.loc 1 55 0
 181 0004 0020     		movs	r0, #0
  57:main.c        ****     while(letter!='\0')
 182              		.loc 1 57 0
 183 0006 23E0     		b	.L15
 184              	.LVL22:
 185              	.L19:
  58:main.c        ****     {
  59:main.c        ****         switch(letter)
 186              		.loc 1 59 0
 187 0008 413B     		subs	r3, r3, #65
 188              	.LVL23:
 189 000a 342B     		cmp	r3, #52
 190 000c 1ED8     		bhi	.L16
 191 000e DFE803F0 		tbb	[pc, r3]
 192              	.L18:
 193 0012 1B       		.byte	(.L17-.L18)/2
 194 0013 1D       		.byte	(.L16-.L18)/2
 195 0014 1D       		.byte	(.L16-.L18)/2
 196 0015 1D       		.byte	(.L16-.L18)/2
 197 0016 1B       		.byte	(.L17-.L18)/2
 198 0017 1D       		.byte	(.L16-.L18)/2
 199 0018 1D       		.byte	(.L16-.L18)/2
 200 0019 1D       		.byte	(.L16-.L18)/2
 201 001a 1B       		.byte	(.L17-.L18)/2
 202 001b 1D       		.byte	(.L16-.L18)/2
 203 001c 1D       		.byte	(.L16-.L18)/2
 204 001d 1D       		.byte	(.L16-.L18)/2
 205 001e 1D       		.byte	(.L16-.L18)/2
 206 001f 1D       		.byte	(.L16-.L18)/2
 207 0020 1B       		.byte	(.L17-.L18)/2
 208 0021 1D       		.byte	(.L16-.L18)/2
 209 0022 1D       		.byte	(.L16-.L18)/2
 210 0023 1D       		.byte	(.L16-.L18)/2
 211 0024 1D       		.byte	(.L16-.L18)/2
 212 0025 1D       		.byte	(.L16-.L18)/2
 213 0026 1B       		.byte	(.L17-.L18)/2
 214 0027 1D       		.byte	(.L16-.L18)/2
 215 0028 1D       		.byte	(.L16-.L18)/2
 216 0029 1D       		.byte	(.L16-.L18)/2
 217 002a 1D       		.byte	(.L16-.L18)/2
 218 002b 1D       		.byte	(.L16-.L18)/2
 219 002c 1D       		.byte	(.L16-.L18)/2
ARM GAS  C:\Users\elias\AppData\Local\Temp\ccwvGe8W.s 			page 6


 220 002d 1D       		.byte	(.L16-.L18)/2
 221 002e 1D       		.byte	(.L16-.L18)/2
 222 002f 1D       		.byte	(.L16-.L18)/2
 223 0030 1D       		.byte	(.L16-.L18)/2
 224 0031 1D       		.byte	(.L16-.L18)/2
 225 0032 1B       		.byte	(.L17-.L18)/2
 226 0033 1D       		.byte	(.L16-.L18)/2
 227 0034 1D       		.byte	(.L16-.L18)/2
 228 0035 1D       		.byte	(.L16-.L18)/2
 229 0036 1B       		.byte	(.L17-.L18)/2
 230 0037 1D       		.byte	(.L16-.L18)/2
 231 0038 1D       		.byte	(.L16-.L18)/2
 232 0039 1D       		.byte	(.L16-.L18)/2
 233 003a 1B       		.byte	(.L17-.L18)/2
 234 003b 1D       		.byte	(.L16-.L18)/2
 235 003c 1D       		.byte	(.L16-.L18)/2
 236 003d 1D       		.byte	(.L16-.L18)/2
 237 003e 1D       		.byte	(.L16-.L18)/2
 238 003f 1D       		.byte	(.L16-.L18)/2
 239 0040 1B       		.byte	(.L17-.L18)/2
 240 0041 1D       		.byte	(.L16-.L18)/2
 241 0042 1D       		.byte	(.L16-.L18)/2
 242 0043 1D       		.byte	(.L16-.L18)/2
 243 0044 1D       		.byte	(.L16-.L18)/2
 244 0045 1D       		.byte	(.L16-.L18)/2
 245 0046 1B       		.byte	(.L17-.L18)/2
 246 0047 00       		.p2align 1
 247              	.L17:
  60:main.c        ****         {
  61:main.c        ****             case 'a':case 'A':
  62:main.c        ****             case 'e':case 'E':
  63:main.c        ****             case 'i':case 'I':
  64:main.c        ****             case 'o':case 'O':
  65:main.c        ****             case 'u':case 'U':
  66:main.c        ****                 N++;
 248              		.loc 1 66 0
 249 0048 0130     		adds	r0, r0, #1
 250              	.LVL24:
 251 004a 80B2     		uxth	r0, r0
 252              	.LVL25:
 253              	.L16:
  67:main.c        ****             default:
  68:main.c        ****                 break;
  69:main.c        ****             
  70:main.c        ****         }
  71:main.c        ****         letter=*v++;
 254              		.loc 1 71 0
 255 004c 1378     		ldrb	r3, [r2]	@ zero_extendqisi2
 256              	.LVL26:
 257 004e 0132     		adds	r2, r2, #1
 258              	.LVL27:
 259              	.L15:
  57:main.c        ****     {
 260              		.loc 1 57 0
 261 0050 002B     		cmp	r3, #0
 262 0052 D9D1     		bne	.L19
  72:main.c        ****     }
ARM GAS  C:\Users\elias\AppData\Local\Temp\ccwvGe8W.s 			page 7


  73:main.c        ****     return N;
  74:main.c        **** }
 263              		.loc 1 74 0
 264 0054 7047     		bx	lr
 265              		.cfi_endproc
 266              	.LFE66:
 267              		.size	contVocal, .-contVocal
 268 0056 00BF     		.section	.text.prime,"ax",%progbits
 269              		.align	2
 270              		.global	prime
 271              		.thumb
 272              		.thumb_func
 273              		.type	prime, %function
 274              	prime:
 275              	.LFB67:
  75:main.c        **** 
  76:main.c        **** u_int32_t prime_A(u_int16_t N);
  77:main.c        **** 
  78:main.c        **** u_int32_t prime(u_int16_t N)
  79:main.c        **** {
 276              		.loc 1 79 0
 277              		.cfi_startproc
 278              		@ args = 0, pretend = 0, frame = 0
 279              		@ frame_needed = 0, uses_anonymous_args = 0
 280              		@ link register save eliminated.
 281              	.LVL28:
  80:main.c        ****     if(N<=1) //verificamos caso trivial 1,0 y numeros negativos
 282              		.loc 1 80 0
 283 0000 0128     		cmp	r0, #1
 284 0002 13D9     		bls	.L24
  81:main.c        ****         return 0;
  82:main.c        ****     if(N == 2) //verificamos caso trivial 2
 285              		.loc 1 82 0
 286 0004 0228     		cmp	r0, #2
 287 0006 13D0     		beq	.L25
  83:main.c        ****         return 1;
  84:main.c        ****     else if(N%2 == 0) //verificamos si es impar, ya que 2 es el unico numero par primo
 288              		.loc 1 84 0
 289 0008 10F0010F 		tst	r0, #1
 290 000c 12D0     		beq	.L26
  85:main.c        ****         return 0;
  86:main.c        ****     u_int16_t limit = N>>1; //Un numero no puede ser multiplo de otro que sea mayor a su mitad
 291              		.loc 1 86 0
 292 000e 4108     		lsrs	r1, r0, #1
 293              	.LVL29:
 294              	.LBB4:
  87:main.c        ****     for(u_int16_t i = 3;i<=limit;i+=2) //si no es multiplo de 2 no es de ningun numero par
 295              		.loc 1 87 0
 296 0010 0323     		movs	r3, #3
 297 0012 07E0     		b	.L22
 298              	.LVL30:
 299              	.L23:
  88:main.c        ****         if(N%i == 0)
 300              		.loc 1 88 0
 301 0014 B0FBF3F2 		udiv	r2, r0, r3
 302 0018 03FB1202 		mls	r2, r3, r2, r0
 303 001c 92B2     		uxth	r2, r2
ARM GAS  C:\Users\elias\AppData\Local\Temp\ccwvGe8W.s 			page 8


 304 001e 5AB1     		cbz	r2, .L27
  87:main.c        ****     for(u_int16_t i = 3;i<=limit;i+=2) //si no es multiplo de 2 no es de ningun numero par
 305              		.loc 1 87 0 discriminator 2
 306 0020 0233     		adds	r3, r3, #2
 307              	.LVL31:
 308 0022 9BB2     		uxth	r3, r3
 309              	.LVL32:
 310              	.L22:
  87:main.c        ****     for(u_int16_t i = 3;i<=limit;i+=2) //si no es multiplo de 2 no es de ningun numero par
 311              		.loc 1 87 0 is_stmt 0 discriminator 1
 312 0024 8B42     		cmp	r3, r1
 313 0026 F5D9     		bls	.L23
 314              	.LBE4:
  89:main.c        ****             return 0;
  90:main.c        ****     return 1;
 315              		.loc 1 90 0 is_stmt 1
 316 0028 0120     		movs	r0, #1
 317              	.LVL33:
 318              	.LBB5:
 319 002a 7047     		bx	lr
 320              	.LVL34:
 321              	.L24:
 322              	.LBE5:
  81:main.c        ****     if(N == 2) //verificamos caso trivial 2
 323              		.loc 1 81 0
 324 002c 0020     		movs	r0, #0
 325              	.LVL35:
 326 002e 7047     		bx	lr
 327              	.LVL36:
 328              	.L25:
  83:main.c        ****     else if(N%2 == 0) //verificamos si es impar, ya que 2 es el unico numero par primo
 329              		.loc 1 83 0
 330 0030 0120     		movs	r0, #1
 331              	.LVL37:
 332 0032 7047     		bx	lr
 333              	.LVL38:
 334              	.L26:
  85:main.c        ****     u_int16_t limit = N>>1; //Un numero no puede ser multiplo de otro que sea mayor a su mitad
 335              		.loc 1 85 0
 336 0034 0020     		movs	r0, #0
 337              	.LVL39:
 338 0036 7047     		bx	lr
 339              	.LVL40:
 340              	.L27:
 341              	.LBB6:
  89:main.c        ****     return 1;
 342              		.loc 1 89 0
 343 0038 0020     		movs	r0, #0
 344              	.LVL41:
 345              	.LBE6:
  91:main.c        **** }
 346              		.loc 1 91 0
 347 003a 7047     		bx	lr
 348              		.cfi_endproc
 349              	.LFE67:
 350              		.size	prime, .-prime
 351              		.section	.text.getInt,"ax",%progbits
ARM GAS  C:\Users\elias\AppData\Local\Temp\ccwvGe8W.s 			page 9


 352              		.align	2
 353              		.global	getInt
 354              		.thumb
 355              		.thumb_func
 356              		.type	getInt, %function
 357              	getInt:
 358              	.LFB68:
  92:main.c        **** 
  93:main.c        **** 
  94:main.c        **** 
  95:main.c        **** 
  96:main.c        **** int16_t getInt(char *buf,u_int max_buf,char *msg)
  97:main.c        **** {
 359              		.loc 1 97 0
 360              		.cfi_startproc
 361              		@ args = 0, pretend = 0, frame = 8
 362              		@ frame_needed = 0, uses_anonymous_args = 0
 363              	.LVL42:
 364 0000 F0B5     		push	{r4, r5, r6, r7, lr}
 365              		.cfi_def_cfa_offset 20
 366              		.cfi_offset 4, -20
 367              		.cfi_offset 5, -16
 368              		.cfi_offset 6, -12
 369              		.cfi_offset 7, -8
 370              		.cfi_offset 14, -4
 371 0002 83B0     		sub	sp, sp, #12
 372              		.cfi_def_cfa_offset 32
 373 0004 0546     		mov	r5, r0
 374 0006 0F46     		mov	r7, r1
 375 0008 1646     		mov	r6, r2
 376              	.LVL43:
  98:main.c        ****     u_int8_t salir = 0;
  99:main.c        ****     int16_t result = 0;
 377              		.loc 1 99 0
 378 000a 0023     		movs	r3, #0
 379 000c ADF80630 		strh	r3, [sp, #6]	@ movhi
 380              	.LVL44:
 381              	.L30:
 100:main.c        ****     do
 101:main.c        ****     {
 102:main.c        ****         PC_PutString(msg);
 382              		.loc 1 102 0
 383 0010 3046     		mov	r0, r6
 384 0012 FFF7FEFF 		bl	PC_PutString
 385              	.LVL45:
 103:main.c        ****         getLine(buf,max_buf,PC_GetChar,PC_PutChar);
 386              		.loc 1 103 0
 387 0016 0C4B     		ldr	r3, .L32
 388 0018 0C4A     		ldr	r2, .L32+4
 389 001a 3946     		mov	r1, r7
 390 001c 2846     		mov	r0, r5
 391 001e FFF7FEFF 		bl	getLine
 392              	.LVL46:
 104:main.c        ****         //u_int16_t aux = strtoul(buf,NULL,10);
 105:main.c        ****         (salir = sscanf(buf,"%hd",&result))?:PC_PutString("Error, valor ingresado no entero\r\n");
 393              		.loc 1 105 0
 394 0022 0DF10602 		add	r2, sp, #6
ARM GAS  C:\Users\elias\AppData\Local\Temp\ccwvGe8W.s 			page 10


 395 0026 0A49     		ldr	r1, .L32+8
 396 0028 2846     		mov	r0, r5
 397 002a FFF7FEFF 		bl	sscanf
 398              	.LVL47:
 399 002e C4B2     		uxtb	r4, r0
 400              	.LVL48:
 401 0030 14B9     		cbnz	r4, .L29
 402              		.loc 1 105 0 is_stmt 0 discriminator 1
 403 0032 0848     		ldr	r0, .L32+12
 404 0034 FFF7FEFF 		bl	PC_PutString
 405              	.LVL49:
 406              	.L29:
 106:main.c        ****     }while(salir != 1);
 407              		.loc 1 106 0 is_stmt 1
 408 0038 012C     		cmp	r4, #1
 409 003a E9D1     		bne	.L30
 107:main.c        ****     buf[0] = '\0';
 410              		.loc 1 107 0
 411 003c 0023     		movs	r3, #0
 412 003e 2B70     		strb	r3, [r5]
 108:main.c        ****     return result;
 109:main.c        **** }
 413              		.loc 1 109 0
 414 0040 BDF90600 		ldrsh	r0, [sp, #6]
 415 0044 03B0     		add	sp, sp, #12
 416              		.cfi_def_cfa_offset 20
 417              		@ sp needed
 418 0046 F0BD     		pop	{r4, r5, r6, r7, pc}
 419              	.LVL50:
 420              	.L33:
 421              		.align	2
 422              	.L32:
 423 0048 00000000 		.word	PC_PutChar
 424 004c 00000000 		.word	PC_GetChar
 425 0050 00000000 		.word	.LC0
 426 0054 04000000 		.word	.LC1
 427              		.cfi_endproc
 428              	.LFE68:
 429              		.size	getInt, .-getInt
 430              		.section	.text.main,"ax",%progbits
 431              		.align	2
 432              		.global	main
 433              		.thumb
 434              		.thumb_func
 435              		.type	main, %function
 436              	main:
 437              	.LFB69:
 110:main.c        **** #define MAX 100
 111:main.c        **** char buffer[MAX];
 112:main.c        **** 
 113:main.c        **** 
 114:main.c        **** int main(void)
 115:main.c        **** {
 438              		.loc 1 115 0
 439              		.cfi_startproc
 440              		@ args = 0, pretend = 0, frame = 0
 441              		@ frame_needed = 0, uses_anonymous_args = 0
ARM GAS  C:\Users\elias\AppData\Local\Temp\ccwvGe8W.s 			page 11


 442 0000 F0B5     		push	{r4, r5, r6, r7, lr}
 443              		.cfi_def_cfa_offset 20
 444              		.cfi_offset 4, -20
 445              		.cfi_offset 5, -16
 446              		.cfi_offset 6, -12
 447              		.cfi_offset 7, -8
 448              		.cfi_offset 14, -4
 449 0002 83B0     		sub	sp, sp, #12
 450              		.cfi_def_cfa_offset 32
 116:main.c        ****     CyGlobalIntEnable; /* Enable global interrupts. */
 451              		.loc 1 116 0
 452              		.syntax unified
 453              	@ 116 "main.c" 1
 454 0004 62B6     		CPSIE   i
 455              	@ 0 "" 2
 456              	.LVL51:
 117:main.c        **** 
 118:main.c        ****     /* Place your initialization/startup code here (e.g. MyInst_Start()) */
 119:main.c        ****     uint8_t n = 0,rc,ra;
 120:main.c        ****  
 121:main.c        ****     PC_Start();
 457              		.loc 1 121 0
 458              		.thumb
 459              		.syntax unified
 460 0006 FFF7FEFF 		bl	PC_Start
 461              	.LVL52:
 462              	.L35:
 122:main.c        ****     for(;;)
 123:main.c        ****     {
 124:main.c        ****         
 125:main.c        ****         n = (uint8_t)getInt(buffer,MAX,"Ingrese el termino n de fibonacci que desea ver: ");
 463              		.loc 1 125 0 discriminator 1
 464 000a 274C     		ldr	r4, .L37
 465 000c 274A     		ldr	r2, .L37+4
 466 000e 6421     		movs	r1, #100
 467 0010 2046     		mov	r0, r4
 468 0012 FFF7FEFF 		bl	getInt
 469              	.LVL53:
 126:main.c        ****         
 127:main.c        ****         rc =fibonacciN(n);
 470              		.loc 1 127 0 discriminator 1
 471 0016 C5B2     		uxtb	r5, r0
 472 0018 2846     		mov	r0, r5
 473 001a FFF7FEFF 		bl	fibonacciN
 474              	.LVL54:
 475 001e 0646     		mov	r6, r0
 476              	.LVL55:
 128:main.c        ****         ra = fibonacciN_A(n);
 477              		.loc 1 128 0 discriminator 1
 478 0020 2846     		mov	r0, r5
 479 0022 FFF7FEFF 		bl	fibonacciN_A
 480              	.LVL56:
 129:main.c        ****         snprintf(buffer,MAX,"Resultados:\n\r\ttC: %i\n\r\tA: %i\n\r",rc,ra);
 481              		.loc 1 129 0 discriminator 1
 482 0026 224D     		ldr	r5, .L37+8
 483              	.LVL57:
 484 0028 C0B2     		uxtb	r0, r0
ARM GAS  C:\Users\elias\AppData\Local\Temp\ccwvGe8W.s 			page 12


 485 002a 0090     		str	r0, [sp]
 486 002c F3B2     		uxtb	r3, r6
 487 002e 2A46     		mov	r2, r5
 488 0030 6421     		movs	r1, #100
 489 0032 2046     		mov	r0, r4
 490              	.LVL58:
 491 0034 FFF7FEFF 		bl	snprintf
 492              	.LVL59:
 130:main.c        ****         PC_PutString(buffer);
 493              		.loc 1 130 0 discriminator 1
 494 0038 2046     		mov	r0, r4
 495 003a FFF7FEFF 		bl	PC_PutString
 496              	.LVL60:
 131:main.c        ****       
 132:main.c        ****         
 133:main.c        ****         n = (uint8_t)getInt(buffer,MAX,"Ingrese numero a verificar si es primo: ");
 497              		.loc 1 133 0 discriminator 1
 498 003e 1D4A     		ldr	r2, .L37+12
 499 0040 6421     		movs	r1, #100
 500 0042 2046     		mov	r0, r4
 501 0044 FFF7FEFF 		bl	getInt
 502              	.LVL61:
 134:main.c        ****         rc =prime(n);
 503              		.loc 1 134 0 discriminator 1
 504 0048 C6B2     		uxtb	r6, r0
 505              	.LVL62:
 506 004a 3046     		mov	r0, r6
 507 004c FFF7FEFF 		bl	prime
 508              	.LVL63:
 509 0050 0746     		mov	r7, r0
 510              	.LVL64:
 135:main.c        ****         ra = prime_A(n);
 511              		.loc 1 135 0 discriminator 1
 512 0052 3046     		mov	r0, r6
 513 0054 FFF7FEFF 		bl	prime_A
 514              	.LVL65:
 136:main.c        ****         snprintf(buffer,MAX,"Resultados:\n\r\ttC: %i\n\r\tA: %i\n\r",rc,ra);
 515              		.loc 1 136 0 discriminator 1
 516 0058 C0B2     		uxtb	r0, r0
 517 005a 0090     		str	r0, [sp]
 518 005c FBB2     		uxtb	r3, r7
 519 005e 2A46     		mov	r2, r5
 520 0060 6421     		movs	r1, #100
 521 0062 2046     		mov	r0, r4
 522              	.LVL66:
 523 0064 FFF7FEFF 		bl	snprintf
 524              	.LVL67:
 137:main.c        ****         PC_PutString(buffer);
 525              		.loc 1 137 0 discriminator 1
 526 0068 2046     		mov	r0, r4
 527 006a FFF7FEFF 		bl	PC_PutString
 528              	.LVL68:
 138:main.c        ****         
 139:main.c        ****         
 140:main.c        ****         
 141:main.c        ****         PC_PutString("Ingrese cadena a contar las vocales: ");
 529              		.loc 1 141 0 discriminator 1
ARM GAS  C:\Users\elias\AppData\Local\Temp\ccwvGe8W.s 			page 13


 530 006e 1248     		ldr	r0, .L37+16
 531 0070 FFF7FEFF 		bl	PC_PutString
 532              	.LVL69:
 142:main.c        ****         getLine(buffer,MAX,PC_GetChar,PC_PutChar);
 533              		.loc 1 142 0 discriminator 1
 534 0074 114B     		ldr	r3, .L37+20
 535 0076 124A     		ldr	r2, .L37+24
 536 0078 6421     		movs	r1, #100
 537 007a 2046     		mov	r0, r4
 538 007c FFF7FEFF 		bl	getLine
 539              	.LVL70:
 143:main.c        ****         rc =contVocal(buffer);
 540              		.loc 1 143 0 discriminator 1
 541 0080 2046     		mov	r0, r4
 542 0082 FFF7FEFF 		bl	contVocal
 543              	.LVL71:
 544 0086 C6B2     		uxtb	r6, r0
 545              	.LVL72:
 144:main.c        ****         ra =contVocal_A(buffer);
 546              		.loc 1 144 0 discriminator 1
 547 0088 2046     		mov	r0, r4
 548 008a FFF7FEFF 		bl	contVocal_A
 549              	.LVL73:
 550 008e C0B2     		uxtb	r0, r0
 551              	.LVL74:
 145:main.c        ****         snprintf(buffer,MAX,"Resultados:\n\r\ttC: %i\n\r\tA: %i\n\r",rc,ra);
 552              		.loc 1 145 0 discriminator 1
 553 0090 0090     		str	r0, [sp]
 554 0092 3346     		mov	r3, r6
 555 0094 2A46     		mov	r2, r5
 556 0096 6421     		movs	r1, #100
 557 0098 2046     		mov	r0, r4
 558              	.LVL75:
 559 009a FFF7FEFF 		bl	snprintf
 560              	.LVL76:
 146:main.c        ****         PC_PutString(buffer);
 561              		.loc 1 146 0 discriminator 1
 562 009e 2046     		mov	r0, r4
 563 00a0 FFF7FEFF 		bl	PC_PutString
 564              	.LVL77:
 565 00a4 B1E7     		b	.L35
 566              	.L38:
 567 00a6 00BF     		.align	2
 568              	.L37:
 569 00a8 00000000 		.word	buffer
 570 00ac 28000000 		.word	.LC2
 571 00b0 5C000000 		.word	.LC3
 572 00b4 7C000000 		.word	.LC4
 573 00b8 A8000000 		.word	.LC5
 574 00bc 00000000 		.word	PC_PutChar
 575 00c0 00000000 		.word	PC_GetChar
 576              		.cfi_endproc
 577              	.LFE69:
 578              		.size	main, .-main
 579              		.comm	buffer,100,4
 580              		.section	.rodata.str1.4,"aMS",%progbits,1
 581              		.align	2
ARM GAS  C:\Users\elias\AppData\Local\Temp\ccwvGe8W.s 			page 14


 582              	.LC0:
 583 0000 25686400 		.ascii	"%hd\000"
 584              	.LC1:
 585 0004 4572726F 		.ascii	"Error, valor ingresado no entero\015\012\000"
 585      722C2076 
 585      616C6F72 
 585      20696E67 
 585      72657361 
 586 0027 00       		.space	1
 587              	.LC2:
 588 0028 496E6772 		.ascii	"Ingrese el termino n de fibonacci que desea ver: \000"
 588      65736520 
 588      656C2074 
 588      65726D69 
 588      6E6F206E 
 589 005a 0000     		.space	2
 590              	.LC3:
 591 005c 52657375 		.ascii	"Resultados:\012\015\011tC: %i\012\015\011A: %i\012\015"
 591      6C746164 
 591      6F733A0A 
 591      0D097443 
 591      3A202569 
 592 007a 00       		.ascii	"\000"
 593 007b 00       		.space	1
 594              	.LC4:
 595 007c 496E6772 		.ascii	"Ingrese numero a verificar si es primo: \000"
 595      65736520 
 595      6E756D65 
 595      726F2061 
 595      20766572 
 596 00a5 000000   		.space	3
 597              	.LC5:
 598 00a8 496E6772 		.ascii	"Ingrese cadena a contar las vocales: \000"
 598      65736520 
 598      63616465 
 598      6E612061 
 598      20636F6E 
 599              		.text
 600              	.Letext0:
 601              		.file 2 "c:\\program files (x86)\\cypress\\psoc creator\\4.4\\psoc creator\\import\\gnu\\arm\\5.4.
 602              		.file 3 "c:\\program files (x86)\\cypress\\psoc creator\\4.4\\psoc creator\\import\\gnu\\arm\\5.4.
 603              		.file 4 "Generated_Source\\PSoC5/cytypes.h"
 604              		.file 5 "c:\\program files (x86)\\cypress\\psoc creator\\4.4\\psoc creator\\import\\gnu\\arm\\5.4.
 605              		.file 6 "Generated_Source\\PSoC5/core_cm3.h"
 606              		.file 7 "Generated_Source\\PSoC5/PC.h"
 607              		.file 8 "c:\\program files (x86)\\cypress\\psoc creator\\4.4\\psoc creator\\import\\gnu\\arm\\5.4.