ARM GAS  C:\Users\elias\AppData\Local\Temp\ccDiWQJ6.s 			page 1


   1              		.syntax unified
   2              		.cpu cortex-m3
   3              		.fpu softvfp
   4              		.eabi_attribute 20, 1
   5              		.eabi_attribute 21, 1
   6              		.eabi_attribute 23, 3
   7              		.eabi_attribute 24, 1
   8              		.eabi_attribute 25, 1
   9              		.eabi_attribute 26, 1
  10              		.eabi_attribute 30, 6
  11              		.eabi_attribute 34, 1
  12              		.eabi_attribute 18, 4
  13              		.thumb
  14              		.syntax unified
  15              		.file	"easy_rgb_lcd.c"
  16              		.text
  17              	.Ltext0:
  18              		.cfi_sections	.debug_frame
  19              		.comm	_displayfunction,1,1
  20              		.comm	_displaycontrol,1,1
  21              		.comm	_displaymode,1,1
  22              		.comm	_initialized,1,1
  23              		.comm	_numlines,1,1
  24              		.comm	_currline,1,1
  25              		.section	.text.LCD_setReg,"ax",%progbits
  26              		.align	2
  27              		.thumb
  28              		.thumb_func
  29              		.type	LCD_setReg, %function
  30              	LCD_setReg:
  31              	.LFB63:
  32              		.file 1 "..\\..\\..\\..\\..\\UCA\\8_Semestre\\Micro 1\\Community\\Grove_LCD_RGB_Backlight-master\\
   1:..\..\..\..\..\UCA\8_Semestre\Micro 1\Community\Grove_LCD_RGB_Backlight-master\Grove_LCD_RGB_Backlight-master/easy_rgb_lcd.c **** #include "easy_rgb_lcd.h"
   2:..\..\..\..\..\UCA\8_Semestre\Micro 1\Community\Grove_LCD_RGB_Backlight-master\Grove_LCD_RGB_Backlight-master/easy_rgb_lcd.c **** 
   3:..\..\..\..\..\UCA\8_Semestre\Micro 1\Community\Grove_LCD_RGB_Backlight-master\Grove_LCD_RGB_Backlight-master/easy_rgb_lcd.c **** // Variables globales
   4:..\..\..\..\..\UCA\8_Semestre\Micro 1\Community\Grove_LCD_RGB_Backlight-master\Grove_LCD_RGB_Backlight-master/easy_rgb_lcd.c **** uint8_t _displayfunction;
   5:..\..\..\..\..\UCA\8_Semestre\Micro 1\Community\Grove_LCD_RGB_Backlight-master\Grove_LCD_RGB_Backlight-master/easy_rgb_lcd.c **** uint8_t _displaycontrol;
   6:..\..\..\..\..\UCA\8_Semestre\Micro 1\Community\Grove_LCD_RGB_Backlight-master\Grove_LCD_RGB_Backlight-master/easy_rgb_lcd.c **** uint8_t _displaymode;
   7:..\..\..\..\..\UCA\8_Semestre\Micro 1\Community\Grove_LCD_RGB_Backlight-master\Grove_LCD_RGB_Backlight-master/easy_rgb_lcd.c **** uint8_t _initialized;
   8:..\..\..\..\..\UCA\8_Semestre\Micro 1\Community\Grove_LCD_RGB_Backlight-master\Grove_LCD_RGB_Backlight-master/easy_rgb_lcd.c **** uint8_t _numlines, _currline;
   9:..\..\..\..\..\UCA\8_Semestre\Micro 1\Community\Grove_LCD_RGB_Backlight-master\Grove_LCD_RGB_Backlight-master/easy_rgb_lcd.c **** 
  10:..\..\..\..\..\UCA\8_Semestre\Micro 1\Community\Grove_LCD_RGB_Backlight-master\Grove_LCD_RGB_Backlight-master/easy_rgb_lcd.c **** #define I2C_RGB_ADDR  0xC4
  11:..\..\..\..\..\UCA\8_Semestre\Micro 1\Community\Grove_LCD_RGB_Backlight-master\Grove_LCD_RGB_Backlight-master/easy_rgb_lcd.c **** #define I2C_LCD_ADDR  0x7C
  12:..\..\..\..\..\UCA\8_Semestre\Micro 1\Community\Grove_LCD_RGB_Backlight-master\Grove_LCD_RGB_Backlight-master/easy_rgb_lcd.c **** 
  13:..\..\..\..\..\UCA\8_Semestre\Micro 1\Community\Grove_LCD_RGB_Backlight-master\Grove_LCD_RGB_Backlight-master/easy_rgb_lcd.c **** // Función para enviar un registro al backlight RGB
  14:..\..\..\..\..\UCA\8_Semestre\Micro 1\Community\Grove_LCD_RGB_Backlight-master\Grove_LCD_RGB_Backlight-master/easy_rgb_lcd.c **** // Función para enviar un registro al backlight RGB
  15:..\..\..\..\..\UCA\8_Semestre\Micro 1\Community\Grove_LCD_RGB_Backlight-master\Grove_LCD_RGB_Backlight-master/easy_rgb_lcd.c **** static void LCD_setReg(unsigned char reg, unsigned char val) {
  33              		.loc 1 15 0
  34              		.cfi_startproc
  35              		@ args = 0, pretend = 0, frame = 16
  36              		@ frame_needed = 1, uses_anonymous_args = 0
  37 0000 80B5     		push	{r7, lr}
  38              		.cfi_def_cfa_offset 8
  39              		.cfi_offset 7, -8
  40              		.cfi_offset 14, -4
  41 0002 84B0     		sub	sp, sp, #16
  42              		.cfi_def_cfa_offset 24
ARM GAS  C:\Users\elias\AppData\Local\Temp\ccDiWQJ6.s 			page 2


  43 0004 00AF     		add	r7, sp, #0
  44              		.cfi_def_cfa_register 7
  45 0006 0346     		mov	r3, r0
  46 0008 0A46     		mov	r2, r1
  47 000a FB71     		strb	r3, [r7, #7]
  48 000c 1346     		mov	r3, r2
  49 000e BB71     		strb	r3, [r7, #6]
  16:..\..\..\..\..\UCA\8_Semestre\Micro 1\Community\Grove_LCD_RGB_Backlight-master\Grove_LCD_RGB_Backlight-master/easy_rgb_lcd.c ****     uint8_t data[2] = {reg, val};
  50              		.loc 1 16 0
  51 0010 FB79     		ldrb	r3, [r7, #7]
  52 0012 3B73     		strb	r3, [r7, #12]
  53 0014 BB79     		ldrb	r3, [r7, #6]
  54 0016 7B73     		strb	r3, [r7, #13]
  17:..\..\..\..\..\UCA\8_Semestre\Micro 1\Community\Grove_LCD_RGB_Backlight-master\Grove_LCD_RGB_Backlight-master/easy_rgb_lcd.c **** 
  18:..\..\..\..\..\UCA\8_Semestre\Micro 1\Community\Grove_LCD_RGB_Backlight-master\Grove_LCD_RGB_Backlight-master/easy_rgb_lcd.c ****     I2C_LCD_MasterWriteBuf(I2C_RGB_ADDR >> 1, data, 2, I2C_LCD_MODE_COMPLETE_XFER);
  55              		.loc 1 18 0
  56 0018 07F10C01 		add	r1, r7, #12
  57 001c 0023     		movs	r3, #0
  58 001e 0222     		movs	r2, #2
  59 0020 6220     		movs	r0, #98
  60 0022 FFF7FEFF 		bl	I2C_LCD_MasterWriteBuf
  19:..\..\..\..\..\UCA\8_Semestre\Micro 1\Community\Grove_LCD_RGB_Backlight-master\Grove_LCD_RGB_Backlight-master/easy_rgb_lcd.c ****     while (I2C_LCD_MasterStatus() & I2C_LCD_MSTAT_XFER_INP);  // Esperar a que termine la transfere
  61              		.loc 1 19 0
  62 0026 00BF     		nop
  63              	.L2:
  64              		.loc 1 19 0 is_stmt 0 discriminator 1
  65 0028 FFF7FEFF 		bl	I2C_LCD_MasterStatus
  66 002c 0346     		mov	r3, r0
  67 002e 03F00403 		and	r3, r3, #4
  68 0032 002B     		cmp	r3, #0
  69 0034 F8D1     		bne	.L2
  20:..\..\..\..\..\UCA\8_Semestre\Micro 1\Community\Grove_LCD_RGB_Backlight-master\Grove_LCD_RGB_Backlight-master/easy_rgb_lcd.c **** }
  70              		.loc 1 20 0 is_stmt 1
  71 0036 00BF     		nop
  72 0038 1037     		adds	r7, r7, #16
  73              		.cfi_def_cfa_offset 8
  74 003a BD46     		mov	sp, r7
  75              		.cfi_def_cfa_register 13
  76              		@ sp needed
  77 003c 80BD     		pop	{r7, pc}
  78              		.cfi_endproc
  79              	.LFE63:
  80              		.size	LCD_setReg, .-LCD_setReg
  81 003e 00BF     		.section	.text.i2c_send_byteS,"ax",%progbits
  82              		.align	2
  83              		.thumb
  84              		.thumb_func
  85              		.type	i2c_send_byteS, %function
  86              	i2c_send_byteS:
  87              	.LFB64:
  21:..\..\..\..\..\UCA\8_Semestre\Micro 1\Community\Grove_LCD_RGB_Backlight-master\Grove_LCD_RGB_Backlight-master/easy_rgb_lcd.c **** 
  22:..\..\..\..\..\UCA\8_Semestre\Micro 1\Community\Grove_LCD_RGB_Backlight-master\Grove_LCD_RGB_Backlight-master/easy_rgb_lcd.c **** // Función para enviar datos al LCD
  23:..\..\..\..\..\UCA\8_Semestre\Micro 1\Community\Grove_LCD_RGB_Backlight-master\Grove_LCD_RGB_Backlight-master/easy_rgb_lcd.c **** static void i2c_send_byteS(uint8_t *data, uint32_t len) {
  88              		.loc 1 23 0
  89              		.cfi_startproc
  90              		@ args = 0, pretend = 0, frame = 8
  91              		@ frame_needed = 1, uses_anonymous_args = 0
ARM GAS  C:\Users\elias\AppData\Local\Temp\ccDiWQJ6.s 			page 3


  92 0000 80B5     		push	{r7, lr}
  93              		.cfi_def_cfa_offset 8
  94              		.cfi_offset 7, -8
  95              		.cfi_offset 14, -4
  96 0002 82B0     		sub	sp, sp, #8
  97              		.cfi_def_cfa_offset 16
  98 0004 00AF     		add	r7, sp, #0
  99              		.cfi_def_cfa_register 7
 100 0006 7860     		str	r0, [r7, #4]
 101 0008 3960     		str	r1, [r7]
  24:..\..\..\..\..\UCA\8_Semestre\Micro 1\Community\Grove_LCD_RGB_Backlight-master\Grove_LCD_RGB_Backlight-master/easy_rgb_lcd.c ****     I2C_LCD_MasterWriteBuf(I2C_LCD_ADDR >> 1, data, len, I2C_LCD_MODE_COMPLETE_XFER);
 102              		.loc 1 24 0
 103 000a 3B68     		ldr	r3, [r7]
 104 000c DAB2     		uxtb	r2, r3
 105 000e 0023     		movs	r3, #0
 106 0010 7968     		ldr	r1, [r7, #4]
 107 0012 3E20     		movs	r0, #62
 108 0014 FFF7FEFF 		bl	I2C_LCD_MasterWriteBuf
  25:..\..\..\..\..\UCA\8_Semestre\Micro 1\Community\Grove_LCD_RGB_Backlight-master\Grove_LCD_RGB_Backlight-master/easy_rgb_lcd.c ****     while (I2C_LCD_MasterStatus() & I2C_LCD_MSTAT_XFER_INP);  // Esperar a que termine la transfere
 109              		.loc 1 25 0
 110 0018 00BF     		nop
 111              	.L4:
 112              		.loc 1 25 0 is_stmt 0 discriminator 1
 113 001a FFF7FEFF 		bl	I2C_LCD_MasterStatus
 114 001e 0346     		mov	r3, r0
 115 0020 03F00403 		and	r3, r3, #4
 116 0024 002B     		cmp	r3, #0
 117 0026 F8D1     		bne	.L4
  26:..\..\..\..\..\UCA\8_Semestre\Micro 1\Community\Grove_LCD_RGB_Backlight-master\Grove_LCD_RGB_Backlight-master/easy_rgb_lcd.c **** }
 118              		.loc 1 26 0 is_stmt 1
 119 0028 00BF     		nop
 120 002a 0837     		adds	r7, r7, #8
 121              		.cfi_def_cfa_offset 8
 122 002c BD46     		mov	sp, r7
 123              		.cfi_def_cfa_register 13
 124              		@ sp needed
 125 002e 80BD     		pop	{r7, pc}
 126              		.cfi_endproc
 127              	.LFE64:
 128              		.size	i2c_send_byteS, .-i2c_send_byteS
 129              		.section	.text.LCD_begin,"ax",%progbits
 130              		.align	2
 131              		.global	LCD_begin
 132              		.thumb
 133              		.thumb_func
 134              		.type	LCD_begin, %function
 135              	LCD_begin:
 136              	.LFB65:
  27:..\..\..\..\..\UCA\8_Semestre\Micro 1\Community\Grove_LCD_RGB_Backlight-master\Grove_LCD_RGB_Backlight-master/easy_rgb_lcd.c **** 
  28:..\..\..\..\..\UCA\8_Semestre\Micro 1\Community\Grove_LCD_RGB_Backlight-master\Grove_LCD_RGB_Backlight-master/easy_rgb_lcd.c **** 
  29:..\..\..\..\..\UCA\8_Semestre\Micro 1\Community\Grove_LCD_RGB_Backlight-master\Grove_LCD_RGB_Backlight-master/easy_rgb_lcd.c **** void LCD_begin(uint8_t cols, uint8_t lines, uint8_t dotsize) {
 137              		.loc 1 29 0
 138              		.cfi_startproc
 139              		@ args = 0, pretend = 0, frame = 8
 140              		@ frame_needed = 1, uses_anonymous_args = 0
 141 0000 80B5     		push	{r7, lr}
 142              		.cfi_def_cfa_offset 8
ARM GAS  C:\Users\elias\AppData\Local\Temp\ccDiWQJ6.s 			page 4


 143              		.cfi_offset 7, -8
 144              		.cfi_offset 14, -4
 145 0002 82B0     		sub	sp, sp, #8
 146              		.cfi_def_cfa_offset 16
 147 0004 00AF     		add	r7, sp, #0
 148              		.cfi_def_cfa_register 7
 149 0006 0346     		mov	r3, r0
 150 0008 FB71     		strb	r3, [r7, #7]
 151 000a 0B46     		mov	r3, r1
 152 000c BB71     		strb	r3, [r7, #6]
 153 000e 1346     		mov	r3, r2
 154 0010 7B71     		strb	r3, [r7, #5]
  30:..\..\..\..\..\UCA\8_Semestre\Micro 1\Community\Grove_LCD_RGB_Backlight-master\Grove_LCD_RGB_Backlight-master/easy_rgb_lcd.c ****     if (lines > 1) {
 155              		.loc 1 30 0
 156 0012 BB79     		ldrb	r3, [r7, #6]	@ zero_extendqisi2
 157 0014 012B     		cmp	r3, #1
 158 0016 06D9     		bls	.L6
  31:..\..\..\..\..\UCA\8_Semestre\Micro 1\Community\Grove_LCD_RGB_Backlight-master\Grove_LCD_RGB_Backlight-master/easy_rgb_lcd.c ****         _displayfunction |= LCD_2LINE;
 159              		.loc 1 31 0
 160 0018 2F4B     		ldr	r3, .L8
 161 001a 1B78     		ldrb	r3, [r3]	@ zero_extendqisi2
 162 001c 43F00803 		orr	r3, r3, #8
 163 0020 DAB2     		uxtb	r2, r3
 164 0022 2D4B     		ldr	r3, .L8
 165 0024 1A70     		strb	r2, [r3]
 166              	.L6:
  32:..\..\..\..\..\UCA\8_Semestre\Micro 1\Community\Grove_LCD_RGB_Backlight-master\Grove_LCD_RGB_Backlight-master/easy_rgb_lcd.c ****     }
  33:..\..\..\..\..\UCA\8_Semestre\Micro 1\Community\Grove_LCD_RGB_Backlight-master\Grove_LCD_RGB_Backlight-master/easy_rgb_lcd.c ****     _numlines = lines;
 167              		.loc 1 33 0
 168 0026 2D4A     		ldr	r2, .L8+4
 169 0028 BB79     		ldrb	r3, [r7, #6]
 170 002a 1370     		strb	r3, [r2]
  34:..\..\..\..\..\UCA\8_Semestre\Micro 1\Community\Grove_LCD_RGB_Backlight-master\Grove_LCD_RGB_Backlight-master/easy_rgb_lcd.c ****     _currline = 0;
 171              		.loc 1 34 0
 172 002c 2C4B     		ldr	r3, .L8+8
 173 002e 0022     		movs	r2, #0
 174 0030 1A70     		strb	r2, [r3]
  35:..\..\..\..\..\UCA\8_Semestre\Micro 1\Community\Grove_LCD_RGB_Backlight-master\Grove_LCD_RGB_Backlight-master/easy_rgb_lcd.c **** 
  36:..\..\..\..\..\UCA\8_Semestre\Micro 1\Community\Grove_LCD_RGB_Backlight-master\Grove_LCD_RGB_Backlight-master/easy_rgb_lcd.c ****     if ((dotsize != 0) && (lines == 1)) {
 175              		.loc 1 36 0
 176 0032 7B79     		ldrb	r3, [r7, #5]	@ zero_extendqisi2
 177 0034 002B     		cmp	r3, #0
 178 0036 09D0     		beq	.L7
 179              		.loc 1 36 0 is_stmt 0 discriminator 1
 180 0038 BB79     		ldrb	r3, [r7, #6]	@ zero_extendqisi2
 181 003a 012B     		cmp	r3, #1
 182 003c 06D1     		bne	.L7
  37:..\..\..\..\..\UCA\8_Semestre\Micro 1\Community\Grove_LCD_RGB_Backlight-master\Grove_LCD_RGB_Backlight-master/easy_rgb_lcd.c ****         _displayfunction |= LCD_5x10DOTS;
 183              		.loc 1 37 0 is_stmt 1
 184 003e 264B     		ldr	r3, .L8
 185 0040 1B78     		ldrb	r3, [r3]	@ zero_extendqisi2
 186 0042 43F00403 		orr	r3, r3, #4
 187 0046 DAB2     		uxtb	r2, r3
 188 0048 234B     		ldr	r3, .L8
 189 004a 1A70     		strb	r2, [r3]
 190              	.L7:
  38:..\..\..\..\..\UCA\8_Semestre\Micro 1\Community\Grove_LCD_RGB_Backlight-master\Grove_LCD_RGB_Backlight-master/easy_rgb_lcd.c ****     }
ARM GAS  C:\Users\elias\AppData\Local\Temp\ccDiWQJ6.s 			page 5


  39:..\..\..\..\..\UCA\8_Semestre\Micro 1\Community\Grove_LCD_RGB_Backlight-master\Grove_LCD_RGB_Backlight-master/easy_rgb_lcd.c **** 
  40:..\..\..\..\..\UCA\8_Semestre\Micro 1\Community\Grove_LCD_RGB_Backlight-master\Grove_LCD_RGB_Backlight-master/easy_rgb_lcd.c ****     CyDelay(50);  // Esperar 50 ms antes de iniciar las comunicaciones
 191              		.loc 1 40 0
 192 004c 3220     		movs	r0, #50
 193 004e FFF7FEFF 		bl	CyDelay
  41:..\..\..\..\..\UCA\8_Semestre\Micro 1\Community\Grove_LCD_RGB_Backlight-master\Grove_LCD_RGB_Backlight-master/easy_rgb_lcd.c **** 
  42:..\..\..\..\..\UCA\8_Semestre\Micro 1\Community\Grove_LCD_RGB_Backlight-master\Grove_LCD_RGB_Backlight-master/easy_rgb_lcd.c ****     // Enviar secuencia de comandos de inicialización
  43:..\..\..\..\..\UCA\8_Semestre\Micro 1\Community\Grove_LCD_RGB_Backlight-master\Grove_LCD_RGB_Backlight-master/easy_rgb_lcd.c ****     LCD_command(LCD_FUNCTIONSET | _displayfunction);
 194              		.loc 1 43 0
 195 0052 214B     		ldr	r3, .L8
 196 0054 1B78     		ldrb	r3, [r3]	@ zero_extendqisi2
 197 0056 43F02003 		orr	r3, r3, #32
 198 005a DBB2     		uxtb	r3, r3
 199 005c 1846     		mov	r0, r3
 200 005e FFF7FEFF 		bl	LCD_command
  44:..\..\..\..\..\UCA\8_Semestre\Micro 1\Community\Grove_LCD_RGB_Backlight-master\Grove_LCD_RGB_Backlight-master/easy_rgb_lcd.c ****     CyDelay(5);  // Esperar más de 4.1ms
 201              		.loc 1 44 0
 202 0062 0520     		movs	r0, #5
 203 0064 FFF7FEFF 		bl	CyDelay
  45:..\..\..\..\..\UCA\8_Semestre\Micro 1\Community\Grove_LCD_RGB_Backlight-master\Grove_LCD_RGB_Backlight-master/easy_rgb_lcd.c **** 
  46:..\..\..\..\..\UCA\8_Semestre\Micro 1\Community\Grove_LCD_RGB_Backlight-master\Grove_LCD_RGB_Backlight-master/easy_rgb_lcd.c ****     LCD_command(LCD_FUNCTIONSET | _displayfunction);
 204              		.loc 1 46 0
 205 0068 1B4B     		ldr	r3, .L8
 206 006a 1B78     		ldrb	r3, [r3]	@ zero_extendqisi2
 207 006c 43F02003 		orr	r3, r3, #32
 208 0070 DBB2     		uxtb	r3, r3
 209 0072 1846     		mov	r0, r3
 210 0074 FFF7FEFF 		bl	LCD_command
  47:..\..\..\..\..\UCA\8_Semestre\Micro 1\Community\Grove_LCD_RGB_Backlight-master\Grove_LCD_RGB_Backlight-master/easy_rgb_lcd.c ****     CyDelay(1);
 211              		.loc 1 47 0
 212 0078 0120     		movs	r0, #1
 213 007a FFF7FEFF 		bl	CyDelay
  48:..\..\..\..\..\UCA\8_Semestre\Micro 1\Community\Grove_LCD_RGB_Backlight-master\Grove_LCD_RGB_Backlight-master/easy_rgb_lcd.c **** 
  49:..\..\..\..\..\UCA\8_Semestre\Micro 1\Community\Grove_LCD_RGB_Backlight-master\Grove_LCD_RGB_Backlight-master/easy_rgb_lcd.c ****     LCD_command(LCD_FUNCTIONSET | _displayfunction);
 214              		.loc 1 49 0
 215 007e 164B     		ldr	r3, .L8
 216 0080 1B78     		ldrb	r3, [r3]	@ zero_extendqisi2
 217 0082 43F02003 		orr	r3, r3, #32
 218 0086 DBB2     		uxtb	r3, r3
 219 0088 1846     		mov	r0, r3
 220 008a FFF7FEFF 		bl	LCD_command
  50:..\..\..\..\..\UCA\8_Semestre\Micro 1\Community\Grove_LCD_RGB_Backlight-master\Grove_LCD_RGB_Backlight-master/easy_rgb_lcd.c **** 
  51:..\..\..\..\..\UCA\8_Semestre\Micro 1\Community\Grove_LCD_RGB_Backlight-master\Grove_LCD_RGB_Backlight-master/easy_rgb_lcd.c ****     _displaycontrol = LCD_DISPLAYON | LCD_CURSOROFF | LCD_BLINKOFF;
 221              		.loc 1 51 0
 222 008e 154B     		ldr	r3, .L8+12
 223 0090 0422     		movs	r2, #4
 224 0092 1A70     		strb	r2, [r3]
  52:..\..\..\..\..\UCA\8_Semestre\Micro 1\Community\Grove_LCD_RGB_Backlight-master\Grove_LCD_RGB_Backlight-master/easy_rgb_lcd.c ****     LCD_display();
 225              		.loc 1 52 0
 226 0094 FFF7FEFF 		bl	LCD_display
  53:..\..\..\..\..\UCA\8_Semestre\Micro 1\Community\Grove_LCD_RGB_Backlight-master\Grove_LCD_RGB_Backlight-master/easy_rgb_lcd.c **** 
  54:..\..\..\..\..\UCA\8_Semestre\Micro 1\Community\Grove_LCD_RGB_Backlight-master\Grove_LCD_RGB_Backlight-master/easy_rgb_lcd.c ****     LCD_clear();
 227              		.loc 1 54 0
 228 0098 FFF7FEFF 		bl	LCD_clear
  55:..\..\..\..\..\UCA\8_Semestre\Micro 1\Community\Grove_LCD_RGB_Backlight-master\Grove_LCD_RGB_Backlight-master/easy_rgb_lcd.c **** 
  56:..\..\..\..\..\UCA\8_Semestre\Micro 1\Community\Grove_LCD_RGB_Backlight-master\Grove_LCD_RGB_Backlight-master/easy_rgb_lcd.c ****     _displaymode = LCD_ENTRYLEFT | LCD_ENTRYSHIFTDECREMENT;
 229              		.loc 1 56 0
ARM GAS  C:\Users\elias\AppData\Local\Temp\ccDiWQJ6.s 			page 6


 230 009c 124B     		ldr	r3, .L8+16
 231 009e 0222     		movs	r2, #2
 232 00a0 1A70     		strb	r2, [r3]
  57:..\..\..\..\..\UCA\8_Semestre\Micro 1\Community\Grove_LCD_RGB_Backlight-master\Grove_LCD_RGB_Backlight-master/easy_rgb_lcd.c ****     LCD_command(LCD_ENTRYMODESET | _displaymode);
 233              		.loc 1 57 0
 234 00a2 114B     		ldr	r3, .L8+16
 235 00a4 1B78     		ldrb	r3, [r3]	@ zero_extendqisi2
 236 00a6 43F00403 		orr	r3, r3, #4
 237 00aa DBB2     		uxtb	r3, r3
 238 00ac 1846     		mov	r0, r3
 239 00ae FFF7FEFF 		bl	LCD_command
  58:..\..\..\..\..\UCA\8_Semestre\Micro 1\Community\Grove_LCD_RGB_Backlight-master\Grove_LCD_RGB_Backlight-master/easy_rgb_lcd.c **** 
  59:..\..\..\..\..\UCA\8_Semestre\Micro 1\Community\Grove_LCD_RGB_Backlight-master\Grove_LCD_RGB_Backlight-master/easy_rgb_lcd.c ****     // Inicializar backlight
  60:..\..\..\..\..\UCA\8_Semestre\Micro 1\Community\Grove_LCD_RGB_Backlight-master\Grove_LCD_RGB_Backlight-master/easy_rgb_lcd.c ****     LCD_setReg(0, 0);
 240              		.loc 1 60 0
 241 00b2 0021     		movs	r1, #0
 242 00b4 0020     		movs	r0, #0
 243 00b6 FFF7FEFF 		bl	LCD_setReg
  61:..\..\..\..\..\UCA\8_Semestre\Micro 1\Community\Grove_LCD_RGB_Backlight-master\Grove_LCD_RGB_Backlight-master/easy_rgb_lcd.c ****     LCD_setReg(1, 0);
 244              		.loc 1 61 0
 245 00ba 0021     		movs	r1, #0
 246 00bc 0120     		movs	r0, #1
 247 00be FFF7FEFF 		bl	LCD_setReg
  62:..\..\..\..\..\UCA\8_Semestre\Micro 1\Community\Grove_LCD_RGB_Backlight-master\Grove_LCD_RGB_Backlight-master/easy_rgb_lcd.c ****     LCD_setReg(0x08, 0xAA);  // Controlar todos los LEDs con PWM
 248              		.loc 1 62 0
 249 00c2 AA21     		movs	r1, #170
 250 00c4 0820     		movs	r0, #8
 251 00c6 FFF7FEFF 		bl	LCD_setReg
  63:..\..\..\..\..\UCA\8_Semestre\Micro 1\Community\Grove_LCD_RGB_Backlight-master\Grove_LCD_RGB_Backlight-master/easy_rgb_lcd.c **** 
  64:..\..\..\..\..\UCA\8_Semestre\Micro 1\Community\Grove_LCD_RGB_Backlight-master\Grove_LCD_RGB_Backlight-master/easy_rgb_lcd.c ****     LCD_setColorWhite();  // Establecer el color blanco por defecto
 252              		.loc 1 64 0
 253 00ca FFF7FEFF 		bl	LCD_setColorWhite
  65:..\..\..\..\..\UCA\8_Semestre\Micro 1\Community\Grove_LCD_RGB_Backlight-master\Grove_LCD_RGB_Backlight-master/easy_rgb_lcd.c **** }
 254              		.loc 1 65 0
 255 00ce 00BF     		nop
 256 00d0 0837     		adds	r7, r7, #8
 257              		.cfi_def_cfa_offset 8
 258 00d2 BD46     		mov	sp, r7
 259              		.cfi_def_cfa_register 13
 260              		@ sp needed
 261 00d4 80BD     		pop	{r7, pc}
 262              	.L9:
 263 00d6 00BF     		.align	2
 264              	.L8:
 265 00d8 00000000 		.word	_displayfunction
 266 00dc 00000000 		.word	_numlines
 267 00e0 00000000 		.word	_currline
 268 00e4 00000000 		.word	_displaycontrol
 269 00e8 00000000 		.word	_displaymode
 270              		.cfi_endproc
 271              	.LFE65:
 272              		.size	LCD_begin, .-LCD_begin
 273              		.section	.text.LCD_clear,"ax",%progbits
 274              		.align	2
 275              		.global	LCD_clear
 276              		.thumb
 277              		.thumb_func
ARM GAS  C:\Users\elias\AppData\Local\Temp\ccDiWQJ6.s 			page 7


 278              		.type	LCD_clear, %function
 279              	LCD_clear:
 280              	.LFB66:
  66:..\..\..\..\..\UCA\8_Semestre\Micro 1\Community\Grove_LCD_RGB_Backlight-master\Grove_LCD_RGB_Backlight-master/easy_rgb_lcd.c **** 
  67:..\..\..\..\..\UCA\8_Semestre\Micro 1\Community\Grove_LCD_RGB_Backlight-master\Grove_LCD_RGB_Backlight-master/easy_rgb_lcd.c **** void LCD_clear(void) {
 281              		.loc 1 67 0
 282              		.cfi_startproc
 283              		@ args = 0, pretend = 0, frame = 0
 284              		@ frame_needed = 1, uses_anonymous_args = 0
 285 0000 80B5     		push	{r7, lr}
 286              		.cfi_def_cfa_offset 8
 287              		.cfi_offset 7, -8
 288              		.cfi_offset 14, -4
 289 0002 00AF     		add	r7, sp, #0
 290              		.cfi_def_cfa_register 7
  68:..\..\..\..\..\UCA\8_Semestre\Micro 1\Community\Grove_LCD_RGB_Backlight-master\Grove_LCD_RGB_Backlight-master/easy_rgb_lcd.c ****     LCD_command(LCD_CLEARDISPLAY);
 291              		.loc 1 68 0
 292 0004 0120     		movs	r0, #1
 293 0006 FFF7FEFF 		bl	LCD_command
  69:..\..\..\..\..\UCA\8_Semestre\Micro 1\Community\Grove_LCD_RGB_Backlight-master\Grove_LCD_RGB_Backlight-master/easy_rgb_lcd.c ****     CyDelay(2);  // Este comando toma tiempo
 294              		.loc 1 69 0
 295 000a 0220     		movs	r0, #2
 296 000c FFF7FEFF 		bl	CyDelay
  70:..\..\..\..\..\UCA\8_Semestre\Micro 1\Community\Grove_LCD_RGB_Backlight-master\Grove_LCD_RGB_Backlight-master/easy_rgb_lcd.c **** }
 297              		.loc 1 70 0
 298 0010 00BF     		nop
 299 0012 80BD     		pop	{r7, pc}
 300              		.cfi_endproc
 301              	.LFE66:
 302              		.size	LCD_clear, .-LCD_clear
 303              		.section	.text.LCD_home,"ax",%progbits
 304              		.align	2
 305              		.global	LCD_home
 306              		.thumb
 307              		.thumb_func
 308              		.type	LCD_home, %function
 309              	LCD_home:
 310              	.LFB67:
  71:..\..\..\..\..\UCA\8_Semestre\Micro 1\Community\Grove_LCD_RGB_Backlight-master\Grove_LCD_RGB_Backlight-master/easy_rgb_lcd.c **** 
  72:..\..\..\..\..\UCA\8_Semestre\Micro 1\Community\Grove_LCD_RGB_Backlight-master\Grove_LCD_RGB_Backlight-master/easy_rgb_lcd.c **** void LCD_home(void) {
 311              		.loc 1 72 0
 312              		.cfi_startproc
 313              		@ args = 0, pretend = 0, frame = 0
 314              		@ frame_needed = 1, uses_anonymous_args = 0
 315 0000 80B5     		push	{r7, lr}
 316              		.cfi_def_cfa_offset 8
 317              		.cfi_offset 7, -8
 318              		.cfi_offset 14, -4
 319 0002 00AF     		add	r7, sp, #0
 320              		.cfi_def_cfa_register 7
  73:..\..\..\..\..\UCA\8_Semestre\Micro 1\Community\Grove_LCD_RGB_Backlight-master\Grove_LCD_RGB_Backlight-master/easy_rgb_lcd.c ****     LCD_command(LCD_RETURNHOME);
 321              		.loc 1 73 0
 322 0004 0220     		movs	r0, #2
 323 0006 FFF7FEFF 		bl	LCD_command
  74:..\..\..\..\..\UCA\8_Semestre\Micro 1\Community\Grove_LCD_RGB_Backlight-master\Grove_LCD_RGB_Backlight-master/easy_rgb_lcd.c ****     CyDelay(2);  // Este comando toma tiempo
 324              		.loc 1 74 0
 325 000a 0220     		movs	r0, #2
ARM GAS  C:\Users\elias\AppData\Local\Temp\ccDiWQJ6.s 			page 8


 326 000c FFF7FEFF 		bl	CyDelay
  75:..\..\..\..\..\UCA\8_Semestre\Micro 1\Community\Grove_LCD_RGB_Backlight-master\Grove_LCD_RGB_Backlight-master/easy_rgb_lcd.c **** }
 327              		.loc 1 75 0
 328 0010 00BF     		nop
 329 0012 80BD     		pop	{r7, pc}
 330              		.cfi_endproc
 331              	.LFE67:
 332              		.size	LCD_home, .-LCD_home
 333              		.section	.text.LCD_noDisplay,"ax",%progbits
 334              		.align	2
 335              		.global	LCD_noDisplay
 336              		.thumb
 337              		.thumb_func
 338              		.type	LCD_noDisplay, %function
 339              	LCD_noDisplay:
 340              	.LFB68:
  76:..\..\..\..\..\UCA\8_Semestre\Micro 1\Community\Grove_LCD_RGB_Backlight-master\Grove_LCD_RGB_Backlight-master/easy_rgb_lcd.c **** 
  77:..\..\..\..\..\UCA\8_Semestre\Micro 1\Community\Grove_LCD_RGB_Backlight-master\Grove_LCD_RGB_Backlight-master/easy_rgb_lcd.c **** void LCD_noDisplay(void) {
 341              		.loc 1 77 0
 342              		.cfi_startproc
 343              		@ args = 0, pretend = 0, frame = 0
 344              		@ frame_needed = 1, uses_anonymous_args = 0
 345 0000 80B5     		push	{r7, lr}
 346              		.cfi_def_cfa_offset 8
 347              		.cfi_offset 7, -8
 348              		.cfi_offset 14, -4
 349 0002 00AF     		add	r7, sp, #0
 350              		.cfi_def_cfa_register 7
  78:..\..\..\..\..\UCA\8_Semestre\Micro 1\Community\Grove_LCD_RGB_Backlight-master\Grove_LCD_RGB_Backlight-master/easy_rgb_lcd.c ****     _displaycontrol &= ~LCD_DISPLAYON;
 351              		.loc 1 78 0
 352 0004 084B     		ldr	r3, .L13
 353 0006 1B78     		ldrb	r3, [r3]	@ zero_extendqisi2
 354 0008 23F00403 		bic	r3, r3, #4
 355 000c DAB2     		uxtb	r2, r3
 356 000e 064B     		ldr	r3, .L13
 357 0010 1A70     		strb	r2, [r3]
  79:..\..\..\..\..\UCA\8_Semestre\Micro 1\Community\Grove_LCD_RGB_Backlight-master\Grove_LCD_RGB_Backlight-master/easy_rgb_lcd.c ****     LCD_command(LCD_DISPLAYCONTROL | _displaycontrol);
 358              		.loc 1 79 0
 359 0012 054B     		ldr	r3, .L13
 360 0014 1B78     		ldrb	r3, [r3]	@ zero_extendqisi2
 361 0016 43F00803 		orr	r3, r3, #8
 362 001a DBB2     		uxtb	r3, r3
 363 001c 1846     		mov	r0, r3
 364 001e FFF7FEFF 		bl	LCD_command
  80:..\..\..\..\..\UCA\8_Semestre\Micro 1\Community\Grove_LCD_RGB_Backlight-master\Grove_LCD_RGB_Backlight-master/easy_rgb_lcd.c **** }
 365              		.loc 1 80 0
 366 0022 00BF     		nop
 367 0024 80BD     		pop	{r7, pc}
 368              	.L14:
 369 0026 00BF     		.align	2
 370              	.L13:
 371 0028 00000000 		.word	_displaycontrol
 372              		.cfi_endproc
 373              	.LFE68:
 374              		.size	LCD_noDisplay, .-LCD_noDisplay
 375              		.section	.text.LCD_display,"ax",%progbits
 376              		.align	2
ARM GAS  C:\Users\elias\AppData\Local\Temp\ccDiWQJ6.s 			page 9


 377              		.global	LCD_display
 378              		.thumb
 379              		.thumb_func
 380              		.type	LCD_display, %function
 381              	LCD_display:
 382              	.LFB69:
  81:..\..\..\..\..\UCA\8_Semestre\Micro 1\Community\Grove_LCD_RGB_Backlight-master\Grove_LCD_RGB_Backlight-master/easy_rgb_lcd.c **** 
  82:..\..\..\..\..\UCA\8_Semestre\Micro 1\Community\Grove_LCD_RGB_Backlight-master\Grove_LCD_RGB_Backlight-master/easy_rgb_lcd.c **** void LCD_display(void) {
 383              		.loc 1 82 0
 384              		.cfi_startproc
 385              		@ args = 0, pretend = 0, frame = 0
 386              		@ frame_needed = 1, uses_anonymous_args = 0
 387 0000 80B5     		push	{r7, lr}
 388              		.cfi_def_cfa_offset 8
 389              		.cfi_offset 7, -8
 390              		.cfi_offset 14, -4
 391 0002 00AF     		add	r7, sp, #0
 392              		.cfi_def_cfa_register 7
  83:..\..\..\..\..\UCA\8_Semestre\Micro 1\Community\Grove_LCD_RGB_Backlight-master\Grove_LCD_RGB_Backlight-master/easy_rgb_lcd.c ****     _displaycontrol |= LCD_DISPLAYON;
 393              		.loc 1 83 0
 394 0004 084B     		ldr	r3, .L16
 395 0006 1B78     		ldrb	r3, [r3]	@ zero_extendqisi2
 396 0008 43F00403 		orr	r3, r3, #4
 397 000c DAB2     		uxtb	r2, r3
 398 000e 064B     		ldr	r3, .L16
 399 0010 1A70     		strb	r2, [r3]
  84:..\..\..\..\..\UCA\8_Semestre\Micro 1\Community\Grove_LCD_RGB_Backlight-master\Grove_LCD_RGB_Backlight-master/easy_rgb_lcd.c ****     LCD_command(LCD_DISPLAYCONTROL | _displaycontrol);
 400              		.loc 1 84 0
 401 0012 054B     		ldr	r3, .L16
 402 0014 1B78     		ldrb	r3, [r3]	@ zero_extendqisi2
 403 0016 43F00803 		orr	r3, r3, #8
 404 001a DBB2     		uxtb	r3, r3
 405 001c 1846     		mov	r0, r3
 406 001e FFF7FEFF 		bl	LCD_command
  85:..\..\..\..\..\UCA\8_Semestre\Micro 1\Community\Grove_LCD_RGB_Backlight-master\Grove_LCD_RGB_Backlight-master/easy_rgb_lcd.c **** }
 407              		.loc 1 85 0
 408 0022 00BF     		nop
 409 0024 80BD     		pop	{r7, pc}
 410              	.L17:
 411 0026 00BF     		.align	2
 412              	.L16:
 413 0028 00000000 		.word	_displaycontrol
 414              		.cfi_endproc
 415              	.LFE69:
 416              		.size	LCD_display, .-LCD_display
 417              		.section	.text.LCD_noBlink,"ax",%progbits
 418              		.align	2
 419              		.global	LCD_noBlink
 420              		.thumb
 421              		.thumb_func
 422              		.type	LCD_noBlink, %function
 423              	LCD_noBlink:
 424              	.LFB70:
  86:..\..\..\..\..\UCA\8_Semestre\Micro 1\Community\Grove_LCD_RGB_Backlight-master\Grove_LCD_RGB_Backlight-master/easy_rgb_lcd.c **** 
  87:..\..\..\..\..\UCA\8_Semestre\Micro 1\Community\Grove_LCD_RGB_Backlight-master\Grove_LCD_RGB_Backlight-master/easy_rgb_lcd.c **** void LCD_noBlink(void) {
 425              		.loc 1 87 0
 426              		.cfi_startproc
ARM GAS  C:\Users\elias\AppData\Local\Temp\ccDiWQJ6.s 			page 10


 427              		@ args = 0, pretend = 0, frame = 0
 428              		@ frame_needed = 1, uses_anonymous_args = 0
 429 0000 80B5     		push	{r7, lr}
 430              		.cfi_def_cfa_offset 8
 431              		.cfi_offset 7, -8
 432              		.cfi_offset 14, -4
 433 0002 00AF     		add	r7, sp, #0
 434              		.cfi_def_cfa_register 7
  88:..\..\..\..\..\UCA\8_Semestre\Micro 1\Community\Grove_LCD_RGB_Backlight-master\Grove_LCD_RGB_Backlight-master/easy_rgb_lcd.c ****     _displaycontrol &= ~LCD_BLINKON;
 435              		.loc 1 88 0
 436 0004 084B     		ldr	r3, .L19
 437 0006 1B78     		ldrb	r3, [r3]	@ zero_extendqisi2
 438 0008 23F00103 		bic	r3, r3, #1
 439 000c DAB2     		uxtb	r2, r3
 440 000e 064B     		ldr	r3, .L19
 441 0010 1A70     		strb	r2, [r3]
  89:..\..\..\..\..\UCA\8_Semestre\Micro 1\Community\Grove_LCD_RGB_Backlight-master\Grove_LCD_RGB_Backlight-master/easy_rgb_lcd.c ****     LCD_command(LCD_DISPLAYCONTROL | _displaycontrol);
 442              		.loc 1 89 0
 443 0012 054B     		ldr	r3, .L19
 444 0014 1B78     		ldrb	r3, [r3]	@ zero_extendqisi2
 445 0016 43F00803 		orr	r3, r3, #8
 446 001a DBB2     		uxtb	r3, r3
 447 001c 1846     		mov	r0, r3
 448 001e FFF7FEFF 		bl	LCD_command
  90:..\..\..\..\..\UCA\8_Semestre\Micro 1\Community\Grove_LCD_RGB_Backlight-master\Grove_LCD_RGB_Backlight-master/easy_rgb_lcd.c **** }
 449              		.loc 1 90 0
 450 0022 00BF     		nop
 451 0024 80BD     		pop	{r7, pc}
 452              	.L20:
 453 0026 00BF     		.align	2
 454              	.L19:
 455 0028 00000000 		.word	_displaycontrol
 456              		.cfi_endproc
 457              	.LFE70:
 458              		.size	LCD_noBlink, .-LCD_noBlink
 459              		.section	.text.LCD_blink,"ax",%progbits
 460              		.align	2
 461              		.global	LCD_blink
 462              		.thumb
 463              		.thumb_func
 464              		.type	LCD_blink, %function
 465              	LCD_blink:
 466              	.LFB71:
  91:..\..\..\..\..\UCA\8_Semestre\Micro 1\Community\Grove_LCD_RGB_Backlight-master\Grove_LCD_RGB_Backlight-master/easy_rgb_lcd.c **** 
  92:..\..\..\..\..\UCA\8_Semestre\Micro 1\Community\Grove_LCD_RGB_Backlight-master\Grove_LCD_RGB_Backlight-master/easy_rgb_lcd.c **** void LCD_blink(void) {
 467              		.loc 1 92 0
 468              		.cfi_startproc
 469              		@ args = 0, pretend = 0, frame = 0
 470              		@ frame_needed = 1, uses_anonymous_args = 0
 471 0000 80B5     		push	{r7, lr}
 472              		.cfi_def_cfa_offset 8
 473              		.cfi_offset 7, -8
 474              		.cfi_offset 14, -4
 475 0002 00AF     		add	r7, sp, #0
 476              		.cfi_def_cfa_register 7
  93:..\..\..\..\..\UCA\8_Semestre\Micro 1\Community\Grove_LCD_RGB_Backlight-master\Grove_LCD_RGB_Backlight-master/easy_rgb_lcd.c ****     _displaycontrol |= LCD_BLINKON;
 477              		.loc 1 93 0
ARM GAS  C:\Users\elias\AppData\Local\Temp\ccDiWQJ6.s 			page 11


 478 0004 084B     		ldr	r3, .L22
 479 0006 1B78     		ldrb	r3, [r3]	@ zero_extendqisi2
 480 0008 43F00103 		orr	r3, r3, #1
 481 000c DAB2     		uxtb	r2, r3
 482 000e 064B     		ldr	r3, .L22
 483 0010 1A70     		strb	r2, [r3]
  94:..\..\..\..\..\UCA\8_Semestre\Micro 1\Community\Grove_LCD_RGB_Backlight-master\Grove_LCD_RGB_Backlight-master/easy_rgb_lcd.c ****     LCD_command(LCD_DISPLAYCONTROL | _displaycontrol);
 484              		.loc 1 94 0
 485 0012 054B     		ldr	r3, .L22
 486 0014 1B78     		ldrb	r3, [r3]	@ zero_extendqisi2
 487 0016 43F00803 		orr	r3, r3, #8
 488 001a DBB2     		uxtb	r3, r3
 489 001c 1846     		mov	r0, r3
 490 001e FFF7FEFF 		bl	LCD_command
  95:..\..\..\..\..\UCA\8_Semestre\Micro 1\Community\Grove_LCD_RGB_Backlight-master\Grove_LCD_RGB_Backlight-master/easy_rgb_lcd.c **** }
 491              		.loc 1 95 0
 492 0022 00BF     		nop
 493 0024 80BD     		pop	{r7, pc}
 494              	.L23:
 495 0026 00BF     		.align	2
 496              	.L22:
 497 0028 00000000 		.word	_displaycontrol
 498              		.cfi_endproc
 499              	.LFE71:
 500              		.size	LCD_blink, .-LCD_blink
 501              		.section	.text.LCD_noCursor,"ax",%progbits
 502              		.align	2
 503              		.global	LCD_noCursor
 504              		.thumb
 505              		.thumb_func
 506              		.type	LCD_noCursor, %function
 507              	LCD_noCursor:
 508              	.LFB72:
  96:..\..\..\..\..\UCA\8_Semestre\Micro 1\Community\Grove_LCD_RGB_Backlight-master\Grove_LCD_RGB_Backlight-master/easy_rgb_lcd.c **** 
  97:..\..\..\..\..\UCA\8_Semestre\Micro 1\Community\Grove_LCD_RGB_Backlight-master\Grove_LCD_RGB_Backlight-master/easy_rgb_lcd.c **** void LCD_noCursor(void) {
 509              		.loc 1 97 0
 510              		.cfi_startproc
 511              		@ args = 0, pretend = 0, frame = 0
 512              		@ frame_needed = 1, uses_anonymous_args = 0
 513 0000 80B5     		push	{r7, lr}
 514              		.cfi_def_cfa_offset 8
 515              		.cfi_offset 7, -8
 516              		.cfi_offset 14, -4
 517 0002 00AF     		add	r7, sp, #0
 518              		.cfi_def_cfa_register 7
  98:..\..\..\..\..\UCA\8_Semestre\Micro 1\Community\Grove_LCD_RGB_Backlight-master\Grove_LCD_RGB_Backlight-master/easy_rgb_lcd.c ****     _displaycontrol &= ~LCD_CURSORON;
 519              		.loc 1 98 0
 520 0004 084B     		ldr	r3, .L25
 521 0006 1B78     		ldrb	r3, [r3]	@ zero_extendqisi2
 522 0008 23F00203 		bic	r3, r3, #2
 523 000c DAB2     		uxtb	r2, r3
 524 000e 064B     		ldr	r3, .L25
 525 0010 1A70     		strb	r2, [r3]
  99:..\..\..\..\..\UCA\8_Semestre\Micro 1\Community\Grove_LCD_RGB_Backlight-master\Grove_LCD_RGB_Backlight-master/easy_rgb_lcd.c ****     LCD_command(LCD_DISPLAYCONTROL | _displaycontrol);
 526              		.loc 1 99 0
 527 0012 054B     		ldr	r3, .L25
 528 0014 1B78     		ldrb	r3, [r3]	@ zero_extendqisi2
ARM GAS  C:\Users\elias\AppData\Local\Temp\ccDiWQJ6.s 			page 12


 529 0016 43F00803 		orr	r3, r3, #8
 530 001a DBB2     		uxtb	r3, r3
 531 001c 1846     		mov	r0, r3
 532 001e FFF7FEFF 		bl	LCD_command
 100:..\..\..\..\..\UCA\8_Semestre\Micro 1\Community\Grove_LCD_RGB_Backlight-master\Grove_LCD_RGB_Backlight-master/easy_rgb_lcd.c **** }
 533              		.loc 1 100 0
 534 0022 00BF     		nop
 535 0024 80BD     		pop	{r7, pc}
 536              	.L26:
 537 0026 00BF     		.align	2
 538              	.L25:
 539 0028 00000000 		.word	_displaycontrol
 540              		.cfi_endproc
 541              	.LFE72:
 542              		.size	LCD_noCursor, .-LCD_noCursor
 543              		.section	.text.LCD_cursor,"ax",%progbits
 544              		.align	2
 545              		.global	LCD_cursor
 546              		.thumb
 547              		.thumb_func
 548              		.type	LCD_cursor, %function
 549              	LCD_cursor:
 550              	.LFB73:
 101:..\..\..\..\..\UCA\8_Semestre\Micro 1\Community\Grove_LCD_RGB_Backlight-master\Grove_LCD_RGB_Backlight-master/easy_rgb_lcd.c **** 
 102:..\..\..\..\..\UCA\8_Semestre\Micro 1\Community\Grove_LCD_RGB_Backlight-master\Grove_LCD_RGB_Backlight-master/easy_rgb_lcd.c **** void LCD_cursor(void) {
 551              		.loc 1 102 0
 552              		.cfi_startproc
 553              		@ args = 0, pretend = 0, frame = 0
 554              		@ frame_needed = 1, uses_anonymous_args = 0
 555 0000 80B5     		push	{r7, lr}
 556              		.cfi_def_cfa_offset 8
 557              		.cfi_offset 7, -8
 558              		.cfi_offset 14, -4
 559 0002 00AF     		add	r7, sp, #0
 560              		.cfi_def_cfa_register 7
 103:..\..\..\..\..\UCA\8_Semestre\Micro 1\Community\Grove_LCD_RGB_Backlight-master\Grove_LCD_RGB_Backlight-master/easy_rgb_lcd.c ****     _displaycontrol |= LCD_CURSORON;
 561              		.loc 1 103 0
 562 0004 084B     		ldr	r3, .L28
 563 0006 1B78     		ldrb	r3, [r3]	@ zero_extendqisi2
 564 0008 43F00203 		orr	r3, r3, #2
 565 000c DAB2     		uxtb	r2, r3
 566 000e 064B     		ldr	r3, .L28
 567 0010 1A70     		strb	r2, [r3]
 104:..\..\..\..\..\UCA\8_Semestre\Micro 1\Community\Grove_LCD_RGB_Backlight-master\Grove_LCD_RGB_Backlight-master/easy_rgb_lcd.c ****     LCD_command(LCD_DISPLAYCONTROL | _displaycontrol);
 568              		.loc 1 104 0
 569 0012 054B     		ldr	r3, .L28
 570 0014 1B78     		ldrb	r3, [r3]	@ zero_extendqisi2
 571 0016 43F00803 		orr	r3, r3, #8
 572 001a DBB2     		uxtb	r3, r3
 573 001c 1846     		mov	r0, r3
 574 001e FFF7FEFF 		bl	LCD_command
 105:..\..\..\..\..\UCA\8_Semestre\Micro 1\Community\Grove_LCD_RGB_Backlight-master\Grove_LCD_RGB_Backlight-master/easy_rgb_lcd.c **** }
 575              		.loc 1 105 0
 576 0022 00BF     		nop
 577 0024 80BD     		pop	{r7, pc}
 578              	.L29:
 579 0026 00BF     		.align	2
ARM GAS  C:\Users\elias\AppData\Local\Temp\ccDiWQJ6.s 			page 13


 580              	.L28:
 581 0028 00000000 		.word	_displaycontrol
 582              		.cfi_endproc
 583              	.LFE73:
 584              		.size	LCD_cursor, .-LCD_cursor
 585              		.section	.text.LCD_scrollDisplayLeft,"ax",%progbits
 586              		.align	2
 587              		.global	LCD_scrollDisplayLeft
 588              		.thumb
 589              		.thumb_func
 590              		.type	LCD_scrollDisplayLeft, %function
 591              	LCD_scrollDisplayLeft:
 592              	.LFB74:
 106:..\..\..\..\..\UCA\8_Semestre\Micro 1\Community\Grove_LCD_RGB_Backlight-master\Grove_LCD_RGB_Backlight-master/easy_rgb_lcd.c **** 
 107:..\..\..\..\..\UCA\8_Semestre\Micro 1\Community\Grove_LCD_RGB_Backlight-master\Grove_LCD_RGB_Backlight-master/easy_rgb_lcd.c **** void LCD_scrollDisplayLeft(void) {
 593              		.loc 1 107 0
 594              		.cfi_startproc
 595              		@ args = 0, pretend = 0, frame = 0
 596              		@ frame_needed = 1, uses_anonymous_args = 0
 597 0000 80B5     		push	{r7, lr}
 598              		.cfi_def_cfa_offset 8
 599              		.cfi_offset 7, -8
 600              		.cfi_offset 14, -4
 601 0002 00AF     		add	r7, sp, #0
 602              		.cfi_def_cfa_register 7
 108:..\..\..\..\..\UCA\8_Semestre\Micro 1\Community\Grove_LCD_RGB_Backlight-master\Grove_LCD_RGB_Backlight-master/easy_rgb_lcd.c ****     LCD_command(LCD_CURSORSHIFT | LCD_DISPLAYMOVE | LCD_MOVELEFT);
 603              		.loc 1 108 0
 604 0004 1820     		movs	r0, #24
 605 0006 FFF7FEFF 		bl	LCD_command
 109:..\..\..\..\..\UCA\8_Semestre\Micro 1\Community\Grove_LCD_RGB_Backlight-master\Grove_LCD_RGB_Backlight-master/easy_rgb_lcd.c **** }
 606              		.loc 1 109 0
 607 000a 00BF     		nop
 608 000c 80BD     		pop	{r7, pc}
 609              		.cfi_endproc
 610              	.LFE74:
 611              		.size	LCD_scrollDisplayLeft, .-LCD_scrollDisplayLeft
 612 000e 00BF     		.section	.text.LCD_scrollDisplayRight,"ax",%progbits
 613              		.align	2
 614              		.global	LCD_scrollDisplayRight
 615              		.thumb
 616              		.thumb_func
 617              		.type	LCD_scrollDisplayRight, %function
 618              	LCD_scrollDisplayRight:
 619              	.LFB75:
 110:..\..\..\..\..\UCA\8_Semestre\Micro 1\Community\Grove_LCD_RGB_Backlight-master\Grove_LCD_RGB_Backlight-master/easy_rgb_lcd.c **** 
 111:..\..\..\..\..\UCA\8_Semestre\Micro 1\Community\Grove_LCD_RGB_Backlight-master\Grove_LCD_RGB_Backlight-master/easy_rgb_lcd.c **** void LCD_scrollDisplayRight(void) {
 620              		.loc 1 111 0
 621              		.cfi_startproc
 622              		@ args = 0, pretend = 0, frame = 0
 623              		@ frame_needed = 1, uses_anonymous_args = 0
 624 0000 80B5     		push	{r7, lr}
 625              		.cfi_def_cfa_offset 8
 626              		.cfi_offset 7, -8
 627              		.cfi_offset 14, -4
 628 0002 00AF     		add	r7, sp, #0
 629              		.cfi_def_cfa_register 7
 112:..\..\..\..\..\UCA\8_Semestre\Micro 1\Community\Grove_LCD_RGB_Backlight-master\Grove_LCD_RGB_Backlight-master/easy_rgb_lcd.c ****     LCD_command(LCD_CURSORSHIFT | LCD_DISPLAYMOVE | LCD_MOVERIGHT);
ARM GAS  C:\Users\elias\AppData\Local\Temp\ccDiWQJ6.s 			page 14


 630              		.loc 1 112 0
 631 0004 1C20     		movs	r0, #28
 632 0006 FFF7FEFF 		bl	LCD_command
 113:..\..\..\..\..\UCA\8_Semestre\Micro 1\Community\Grove_LCD_RGB_Backlight-master\Grove_LCD_RGB_Backlight-master/easy_rgb_lcd.c **** }
 633              		.loc 1 113 0
 634 000a 00BF     		nop
 635 000c 80BD     		pop	{r7, pc}
 636              		.cfi_endproc
 637              	.LFE75:
 638              		.size	LCD_scrollDisplayRight, .-LCD_scrollDisplayRight
 639 000e 00BF     		.section	.text.LCD_leftToRight,"ax",%progbits
 640              		.align	2
 641              		.global	LCD_leftToRight
 642              		.thumb
 643              		.thumb_func
 644              		.type	LCD_leftToRight, %function
 645              	LCD_leftToRight:
 646              	.LFB76:
 114:..\..\..\..\..\UCA\8_Semestre\Micro 1\Community\Grove_LCD_RGB_Backlight-master\Grove_LCD_RGB_Backlight-master/easy_rgb_lcd.c **** 
 115:..\..\..\..\..\UCA\8_Semestre\Micro 1\Community\Grove_LCD_RGB_Backlight-master\Grove_LCD_RGB_Backlight-master/easy_rgb_lcd.c **** void LCD_leftToRight(void) {
 647              		.loc 1 115 0
 648              		.cfi_startproc
 649              		@ args = 0, pretend = 0, frame = 0
 650              		@ frame_needed = 1, uses_anonymous_args = 0
 651 0000 80B5     		push	{r7, lr}
 652              		.cfi_def_cfa_offset 8
 653              		.cfi_offset 7, -8
 654              		.cfi_offset 14, -4
 655 0002 00AF     		add	r7, sp, #0
 656              		.cfi_def_cfa_register 7
 116:..\..\..\..\..\UCA\8_Semestre\Micro 1\Community\Grove_LCD_RGB_Backlight-master\Grove_LCD_RGB_Backlight-master/easy_rgb_lcd.c ****     _displaymode |= LCD_ENTRYLEFT;
 657              		.loc 1 116 0
 658 0004 084B     		ldr	r3, .L33
 659 0006 1B78     		ldrb	r3, [r3]	@ zero_extendqisi2
 660 0008 43F00203 		orr	r3, r3, #2
 661 000c DAB2     		uxtb	r2, r3
 662 000e 064B     		ldr	r3, .L33
 663 0010 1A70     		strb	r2, [r3]
 117:..\..\..\..\..\UCA\8_Semestre\Micro 1\Community\Grove_LCD_RGB_Backlight-master\Grove_LCD_RGB_Backlight-master/easy_rgb_lcd.c ****     LCD_command(LCD_ENTRYMODESET | _displaymode);
 664              		.loc 1 117 0
 665 0012 054B     		ldr	r3, .L33
 666 0014 1B78     		ldrb	r3, [r3]	@ zero_extendqisi2
 667 0016 43F00403 		orr	r3, r3, #4
 668 001a DBB2     		uxtb	r3, r3
 669 001c 1846     		mov	r0, r3
 670 001e FFF7FEFF 		bl	LCD_command
 118:..\..\..\..\..\UCA\8_Semestre\Micro 1\Community\Grove_LCD_RGB_Backlight-master\Grove_LCD_RGB_Backlight-master/easy_rgb_lcd.c **** }
 671              		.loc 1 118 0
 672 0022 00BF     		nop
 673 0024 80BD     		pop	{r7, pc}
 674              	.L34:
 675 0026 00BF     		.align	2
 676              	.L33:
 677 0028 00000000 		.word	_displaymode
 678              		.cfi_endproc
 679              	.LFE76:
 680              		.size	LCD_leftToRight, .-LCD_leftToRight
ARM GAS  C:\Users\elias\AppData\Local\Temp\ccDiWQJ6.s 			page 15


 681              		.section	.text.LCD_rightToLeft,"ax",%progbits
 682              		.align	2
 683              		.global	LCD_rightToLeft
 684              		.thumb
 685              		.thumb_func
 686              		.type	LCD_rightToLeft, %function
 687              	LCD_rightToLeft:
 688              	.LFB77:
 119:..\..\..\..\..\UCA\8_Semestre\Micro 1\Community\Grove_LCD_RGB_Backlight-master\Grove_LCD_RGB_Backlight-master/easy_rgb_lcd.c **** 
 120:..\..\..\..\..\UCA\8_Semestre\Micro 1\Community\Grove_LCD_RGB_Backlight-master\Grove_LCD_RGB_Backlight-master/easy_rgb_lcd.c **** void LCD_rightToLeft(void) {
 689              		.loc 1 120 0
 690              		.cfi_startproc
 691              		@ args = 0, pretend = 0, frame = 0
 692              		@ frame_needed = 1, uses_anonymous_args = 0
 693 0000 80B5     		push	{r7, lr}
 694              		.cfi_def_cfa_offset 8
 695              		.cfi_offset 7, -8
 696              		.cfi_offset 14, -4
 697 0002 00AF     		add	r7, sp, #0
 698              		.cfi_def_cfa_register 7
 121:..\..\..\..\..\UCA\8_Semestre\Micro 1\Community\Grove_LCD_RGB_Backlight-master\Grove_LCD_RGB_Backlight-master/easy_rgb_lcd.c ****     _displaymode &= ~LCD_ENTRYLEFT;
 699              		.loc 1 121 0
 700 0004 084B     		ldr	r3, .L36
 701 0006 1B78     		ldrb	r3, [r3]	@ zero_extendqisi2
 702 0008 23F00203 		bic	r3, r3, #2
 703 000c DAB2     		uxtb	r2, r3
 704 000e 064B     		ldr	r3, .L36
 705 0010 1A70     		strb	r2, [r3]
 122:..\..\..\..\..\UCA\8_Semestre\Micro 1\Community\Grove_LCD_RGB_Backlight-master\Grove_LCD_RGB_Backlight-master/easy_rgb_lcd.c ****     LCD_command(LCD_ENTRYMODESET | _displaymode);
 706              		.loc 1 122 0
 707 0012 054B     		ldr	r3, .L36
 708 0014 1B78     		ldrb	r3, [r3]	@ zero_extendqisi2
 709 0016 43F00403 		orr	r3, r3, #4
 710 001a DBB2     		uxtb	r3, r3
 711 001c 1846     		mov	r0, r3
 712 001e FFF7FEFF 		bl	LCD_command
 123:..\..\..\..\..\UCA\8_Semestre\Micro 1\Community\Grove_LCD_RGB_Backlight-master\Grove_LCD_RGB_Backlight-master/easy_rgb_lcd.c **** }
 713              		.loc 1 123 0
 714 0022 00BF     		nop
 715 0024 80BD     		pop	{r7, pc}
 716              	.L37:
 717 0026 00BF     		.align	2
 718              	.L36:
 719 0028 00000000 		.word	_displaymode
 720              		.cfi_endproc
 721              	.LFE77:
 722              		.size	LCD_rightToLeft, .-LCD_rightToLeft
 723              		.section	.text.LCD_autoscroll,"ax",%progbits
 724              		.align	2
 725              		.global	LCD_autoscroll
 726              		.thumb
 727              		.thumb_func
 728              		.type	LCD_autoscroll, %function
 729              	LCD_autoscroll:
 730              	.LFB78:
 124:..\..\..\..\..\UCA\8_Semestre\Micro 1\Community\Grove_LCD_RGB_Backlight-master\Grove_LCD_RGB_Backlight-master/easy_rgb_lcd.c **** 
 125:..\..\..\..\..\UCA\8_Semestre\Micro 1\Community\Grove_LCD_RGB_Backlight-master\Grove_LCD_RGB_Backlight-master/easy_rgb_lcd.c **** void LCD_autoscroll(void) {
ARM GAS  C:\Users\elias\AppData\Local\Temp\ccDiWQJ6.s 			page 16


 731              		.loc 1 125 0
 732              		.cfi_startproc
 733              		@ args = 0, pretend = 0, frame = 0
 734              		@ frame_needed = 1, uses_anonymous_args = 0
 735 0000 80B5     		push	{r7, lr}
 736              		.cfi_def_cfa_offset 8
 737              		.cfi_offset 7, -8
 738              		.cfi_offset 14, -4
 739 0002 00AF     		add	r7, sp, #0
 740              		.cfi_def_cfa_register 7
 126:..\..\..\..\..\UCA\8_Semestre\Micro 1\Community\Grove_LCD_RGB_Backlight-master\Grove_LCD_RGB_Backlight-master/easy_rgb_lcd.c ****     _displaymode |= LCD_ENTRYSHIFTINCREMENT;
 741              		.loc 1 126 0
 742 0004 084B     		ldr	r3, .L39
 743 0006 1B78     		ldrb	r3, [r3]	@ zero_extendqisi2
 744 0008 43F00103 		orr	r3, r3, #1
 745 000c DAB2     		uxtb	r2, r3
 746 000e 064B     		ldr	r3, .L39
 747 0010 1A70     		strb	r2, [r3]
 127:..\..\..\..\..\UCA\8_Semestre\Micro 1\Community\Grove_LCD_RGB_Backlight-master\Grove_LCD_RGB_Backlight-master/easy_rgb_lcd.c ****     LCD_command(LCD_ENTRYMODESET | _displaymode);
 748              		.loc 1 127 0
 749 0012 054B     		ldr	r3, .L39
 750 0014 1B78     		ldrb	r3, [r3]	@ zero_extendqisi2
 751 0016 43F00403 		orr	r3, r3, #4
 752 001a DBB2     		uxtb	r3, r3
 753 001c 1846     		mov	r0, r3
 754 001e FFF7FEFF 		bl	LCD_command
 128:..\..\..\..\..\UCA\8_Semestre\Micro 1\Community\Grove_LCD_RGB_Backlight-master\Grove_LCD_RGB_Backlight-master/easy_rgb_lcd.c **** }
 755              		.loc 1 128 0
 756 0022 00BF     		nop
 757 0024 80BD     		pop	{r7, pc}
 758              	.L40:
 759 0026 00BF     		.align	2
 760              	.L39:
 761 0028 00000000 		.word	_displaymode
 762              		.cfi_endproc
 763              	.LFE78:
 764              		.size	LCD_autoscroll, .-LCD_autoscroll
 765              		.section	.text.LCD_noAutoscroll,"ax",%progbits
 766              		.align	2
 767              		.global	LCD_noAutoscroll
 768              		.thumb
 769              		.thumb_func
 770              		.type	LCD_noAutoscroll, %function
 771              	LCD_noAutoscroll:
 772              	.LFB79:
 129:..\..\..\..\..\UCA\8_Semestre\Micro 1\Community\Grove_LCD_RGB_Backlight-master\Grove_LCD_RGB_Backlight-master/easy_rgb_lcd.c **** 
 130:..\..\..\..\..\UCA\8_Semestre\Micro 1\Community\Grove_LCD_RGB_Backlight-master\Grove_LCD_RGB_Backlight-master/easy_rgb_lcd.c **** void LCD_noAutoscroll(void) {
 773              		.loc 1 130 0
 774              		.cfi_startproc
 775              		@ args = 0, pretend = 0, frame = 0
 776              		@ frame_needed = 1, uses_anonymous_args = 0
 777 0000 80B5     		push	{r7, lr}
 778              		.cfi_def_cfa_offset 8
 779              		.cfi_offset 7, -8
 780              		.cfi_offset 14, -4
 781 0002 00AF     		add	r7, sp, #0
 782              		.cfi_def_cfa_register 7
ARM GAS  C:\Users\elias\AppData\Local\Temp\ccDiWQJ6.s 			page 17


 131:..\..\..\..\..\UCA\8_Semestre\Micro 1\Community\Grove_LCD_RGB_Backlight-master\Grove_LCD_RGB_Backlight-master/easy_rgb_lcd.c ****     _displaymode &= ~LCD_ENTRYSHIFTINCREMENT;
 783              		.loc 1 131 0
 784 0004 084B     		ldr	r3, .L42
 785 0006 1B78     		ldrb	r3, [r3]	@ zero_extendqisi2
 786 0008 23F00103 		bic	r3, r3, #1
 787 000c DAB2     		uxtb	r2, r3
 788 000e 064B     		ldr	r3, .L42
 789 0010 1A70     		strb	r2, [r3]
 132:..\..\..\..\..\UCA\8_Semestre\Micro 1\Community\Grove_LCD_RGB_Backlight-master\Grove_LCD_RGB_Backlight-master/easy_rgb_lcd.c ****     LCD_command(LCD_ENTRYMODESET | _displaymode);
 790              		.loc 1 132 0
 791 0012 054B     		ldr	r3, .L42
 792 0014 1B78     		ldrb	r3, [r3]	@ zero_extendqisi2
 793 0016 43F00403 		orr	r3, r3, #4
 794 001a DBB2     		uxtb	r3, r3
 795 001c 1846     		mov	r0, r3
 796 001e FFF7FEFF 		bl	LCD_command
 133:..\..\..\..\..\UCA\8_Semestre\Micro 1\Community\Grove_LCD_RGB_Backlight-master\Grove_LCD_RGB_Backlight-master/easy_rgb_lcd.c **** }
 797              		.loc 1 133 0
 798 0022 00BF     		nop
 799 0024 80BD     		pop	{r7, pc}
 800              	.L43:
 801 0026 00BF     		.align	2
 802              	.L42:
 803 0028 00000000 		.word	_displaymode
 804              		.cfi_endproc
 805              	.LFE79:
 806              		.size	LCD_noAutoscroll, .-LCD_noAutoscroll
 807              		.section	.text.LCD_createChar,"ax",%progbits
 808              		.align	2
 809              		.global	LCD_createChar
 810              		.thumb
 811              		.thumb_func
 812              		.type	LCD_createChar, %function
 813              	LCD_createChar:
 814              	.LFB80:
 134:..\..\..\..\..\UCA\8_Semestre\Micro 1\Community\Grove_LCD_RGB_Backlight-master\Grove_LCD_RGB_Backlight-master/easy_rgb_lcd.c **** 
 135:..\..\..\..\..\UCA\8_Semestre\Micro 1\Community\Grove_LCD_RGB_Backlight-master\Grove_LCD_RGB_Backlight-master/easy_rgb_lcd.c **** void LCD_createChar(uint8_t location, uint8_t charmap[]) {
 815              		.loc 1 135 0
 816              		.cfi_startproc
 817              		@ args = 0, pretend = 0, frame = 24
 818              		@ frame_needed = 1, uses_anonymous_args = 0
 819 0000 80B5     		push	{r7, lr}
 820              		.cfi_def_cfa_offset 8
 821              		.cfi_offset 7, -8
 822              		.cfi_offset 14, -4
 823 0002 86B0     		sub	sp, sp, #24
 824              		.cfi_def_cfa_offset 32
 825 0004 00AF     		add	r7, sp, #0
 826              		.cfi_def_cfa_register 7
 827 0006 0346     		mov	r3, r0
 828 0008 3960     		str	r1, [r7]
 829 000a FB71     		strb	r3, [r7, #7]
 136:..\..\..\..\..\UCA\8_Semestre\Micro 1\Community\Grove_LCD_RGB_Backlight-master\Grove_LCD_RGB_Backlight-master/easy_rgb_lcd.c ****     location &= 0x7;  // Solo hay 8 ubicaciones (0-7)
 830              		.loc 1 136 0
 831 000c FB79     		ldrb	r3, [r7, #7]
 832 000e 03F00703 		and	r3, r3, #7
 833 0012 FB71     		strb	r3, [r7, #7]
ARM GAS  C:\Users\elias\AppData\Local\Temp\ccDiWQJ6.s 			page 18


 137:..\..\..\..\..\UCA\8_Semestre\Micro 1\Community\Grove_LCD_RGB_Backlight-master\Grove_LCD_RGB_Backlight-master/easy_rgb_lcd.c ****     LCD_command(LCD_SETCGRAMADDR | (location << 3));
 834              		.loc 1 137 0
 835 0014 FB79     		ldrb	r3, [r7, #7]	@ zero_extendqisi2
 836 0016 DB00     		lsls	r3, r3, #3
 837 0018 5BB2     		sxtb	r3, r3
 838 001a 43F04003 		orr	r3, r3, #64
 839 001e 5BB2     		sxtb	r3, r3
 840 0020 DBB2     		uxtb	r3, r3
 841 0022 1846     		mov	r0, r3
 842 0024 FFF7FEFF 		bl	LCD_command
 138:..\..\..\..\..\UCA\8_Semestre\Micro 1\Community\Grove_LCD_RGB_Backlight-master\Grove_LCD_RGB_Backlight-master/easy_rgb_lcd.c **** 
 139:..\..\..\..\..\UCA\8_Semestre\Micro 1\Community\Grove_LCD_RGB_Backlight-master\Grove_LCD_RGB_Backlight-master/easy_rgb_lcd.c ****     unsigned char dta[9];
 140:..\..\..\..\..\UCA\8_Semestre\Micro 1\Community\Grove_LCD_RGB_Backlight-master\Grove_LCD_RGB_Backlight-master/easy_rgb_lcd.c ****     dta[0] = 0x40;
 843              		.loc 1 140 0
 844 0028 4023     		movs	r3, #64
 845 002a 3B72     		strb	r3, [r7, #8]
 846              	.LBB2:
 141:..\..\..\..\..\UCA\8_Semestre\Micro 1\Community\Grove_LCD_RGB_Backlight-master\Grove_LCD_RGB_Backlight-master/easy_rgb_lcd.c ****     for (int i = 0; i < 8; i++) {
 847              		.loc 1 141 0
 848 002c 0023     		movs	r3, #0
 849 002e 7B61     		str	r3, [r7, #20]
 850 0030 0DE0     		b	.L45
 851              	.L46:
 142:..\..\..\..\..\UCA\8_Semestre\Micro 1\Community\Grove_LCD_RGB_Backlight-master\Grove_LCD_RGB_Backlight-master/easy_rgb_lcd.c ****         dta[i + 1] = charmap[i];
 852              		.loc 1 142 0 discriminator 3
 853 0032 7B69     		ldr	r3, [r7, #20]
 854 0034 0133     		adds	r3, r3, #1
 855 0036 7A69     		ldr	r2, [r7, #20]
 856 0038 3968     		ldr	r1, [r7]
 857 003a 0A44     		add	r2, r2, r1
 858 003c 1278     		ldrb	r2, [r2]	@ zero_extendqisi2
 859 003e 07F11801 		add	r1, r7, #24
 860 0042 0B44     		add	r3, r3, r1
 861 0044 03F8102C 		strb	r2, [r3, #-16]
 141:..\..\..\..\..\UCA\8_Semestre\Micro 1\Community\Grove_LCD_RGB_Backlight-master\Grove_LCD_RGB_Backlight-master/easy_rgb_lcd.c ****     for (int i = 0; i < 8; i++) {
 862              		.loc 1 141 0 discriminator 3
 863 0048 7B69     		ldr	r3, [r7, #20]
 864 004a 0133     		adds	r3, r3, #1
 865 004c 7B61     		str	r3, [r7, #20]
 866              	.L45:
 141:..\..\..\..\..\UCA\8_Semestre\Micro 1\Community\Grove_LCD_RGB_Backlight-master\Grove_LCD_RGB_Backlight-master/easy_rgb_lcd.c ****     for (int i = 0; i < 8; i++) {
 867              		.loc 1 141 0 is_stmt 0 discriminator 1
 868 004e 7B69     		ldr	r3, [r7, #20]
 869 0050 072B     		cmp	r3, #7
 870 0052 EEDD     		ble	.L46
 871              	.LBE2:
 143:..\..\..\..\..\UCA\8_Semestre\Micro 1\Community\Grove_LCD_RGB_Backlight-master\Grove_LCD_RGB_Backlight-master/easy_rgb_lcd.c ****     }
 144:..\..\..\..\..\UCA\8_Semestre\Micro 1\Community\Grove_LCD_RGB_Backlight-master\Grove_LCD_RGB_Backlight-master/easy_rgb_lcd.c ****     i2c_send_byteS(dta, 9);
 872              		.loc 1 144 0 is_stmt 1
 873 0054 07F10803 		add	r3, r7, #8
 874 0058 0921     		movs	r1, #9
 875 005a 1846     		mov	r0, r3
 876 005c FFF7FEFF 		bl	i2c_send_byteS
 145:..\..\..\..\..\UCA\8_Semestre\Micro 1\Community\Grove_LCD_RGB_Backlight-master\Grove_LCD_RGB_Backlight-master/easy_rgb_lcd.c **** }
 877              		.loc 1 145 0
 878 0060 00BF     		nop
 879 0062 1837     		adds	r7, r7, #24
ARM GAS  C:\Users\elias\AppData\Local\Temp\ccDiWQJ6.s 			page 19


 880              		.cfi_def_cfa_offset 8
 881 0064 BD46     		mov	sp, r7
 882              		.cfi_def_cfa_register 13
 883              		@ sp needed
 884 0066 80BD     		pop	{r7, pc}
 885              		.cfi_endproc
 886              	.LFE80:
 887              		.size	LCD_createChar, .-LCD_createChar
 888              		.section	.text.LCD_setCursor,"ax",%progbits
 889              		.align	2
 890              		.global	LCD_setCursor
 891              		.thumb
 892              		.thumb_func
 893              		.type	LCD_setCursor, %function
 894              	LCD_setCursor:
 895              	.LFB81:
 146:..\..\..\..\..\UCA\8_Semestre\Micro 1\Community\Grove_LCD_RGB_Backlight-master\Grove_LCD_RGB_Backlight-master/easy_rgb_lcd.c **** 
 147:..\..\..\..\..\UCA\8_Semestre\Micro 1\Community\Grove_LCD_RGB_Backlight-master\Grove_LCD_RGB_Backlight-master/easy_rgb_lcd.c **** void LCD_setCursor(uint8_t col, uint8_t row) {
 896              		.loc 1 147 0
 897              		.cfi_startproc
 898              		@ args = 0, pretend = 0, frame = 16
 899              		@ frame_needed = 1, uses_anonymous_args = 0
 900 0000 80B5     		push	{r7, lr}
 901              		.cfi_def_cfa_offset 8
 902              		.cfi_offset 7, -8
 903              		.cfi_offset 14, -4
 904 0002 84B0     		sub	sp, sp, #16
 905              		.cfi_def_cfa_offset 24
 906 0004 00AF     		add	r7, sp, #0
 907              		.cfi_def_cfa_register 7
 908 0006 0346     		mov	r3, r0
 909 0008 0A46     		mov	r2, r1
 910 000a FB71     		strb	r3, [r7, #7]
 911 000c 1346     		mov	r3, r2
 912 000e BB71     		strb	r3, [r7, #6]
 148:..\..\..\..\..\UCA\8_Semestre\Micro 1\Community\Grove_LCD_RGB_Backlight-master\Grove_LCD_RGB_Backlight-master/easy_rgb_lcd.c ****     col = (row == 0 ? col | 0x80 : col | 0xc0);
 913              		.loc 1 148 0
 914 0010 BB79     		ldrb	r3, [r7, #6]	@ zero_extendqisi2
 915 0012 002B     		cmp	r3, #0
 916 0014 04D1     		bne	.L48
 917              		.loc 1 148 0 is_stmt 0 discriminator 1
 918 0016 FB79     		ldrb	r3, [r7, #7]
 919 0018 63F07F03 		orn	r3, r3, #127
 920 001c DBB2     		uxtb	r3, r3
 921 001e 03E0     		b	.L49
 922              	.L48:
 923              		.loc 1 148 0 discriminator 2
 924 0020 FB79     		ldrb	r3, [r7, #7]
 925 0022 63F03F03 		orn	r3, r3, #63
 926 0026 DBB2     		uxtb	r3, r3
 927              	.L49:
 928              		.loc 1 148 0 discriminator 4
 929 0028 FB71     		strb	r3, [r7, #7]
 149:..\..\..\..\..\UCA\8_Semestre\Micro 1\Community\Grove_LCD_RGB_Backlight-master\Grove_LCD_RGB_Backlight-master/easy_rgb_lcd.c ****     unsigned char dta[2] = {0x80, col};
 930              		.loc 1 149 0 is_stmt 1 discriminator 4
 931 002a 8023     		movs	r3, #128
 932 002c 3B73     		strb	r3, [r7, #12]
ARM GAS  C:\Users\elias\AppData\Local\Temp\ccDiWQJ6.s 			page 20


 933 002e FB79     		ldrb	r3, [r7, #7]
 934 0030 7B73     		strb	r3, [r7, #13]
 150:..\..\..\..\..\UCA\8_Semestre\Micro 1\Community\Grove_LCD_RGB_Backlight-master\Grove_LCD_RGB_Backlight-master/easy_rgb_lcd.c ****     i2c_send_byteS(dta, 2);
 935              		.loc 1 150 0 discriminator 4
 936 0032 07F10C03 		add	r3, r7, #12
 937 0036 0221     		movs	r1, #2
 938 0038 1846     		mov	r0, r3
 939 003a FFF7FEFF 		bl	i2c_send_byteS
 151:..\..\..\..\..\UCA\8_Semestre\Micro 1\Community\Grove_LCD_RGB_Backlight-master\Grove_LCD_RGB_Backlight-master/easy_rgb_lcd.c **** }
 940              		.loc 1 151 0 discriminator 4
 941 003e 00BF     		nop
 942 0040 1037     		adds	r7, r7, #16
 943              		.cfi_def_cfa_offset 8
 944 0042 BD46     		mov	sp, r7
 945              		.cfi_def_cfa_register 13
 946              		@ sp needed
 947 0044 80BD     		pop	{r7, pc}
 948              		.cfi_endproc
 949              	.LFE81:
 950              		.size	LCD_setCursor, .-LCD_setCursor
 951 0046 00BF     		.section	.text.LCD_write,"ax",%progbits
 952              		.align	2
 953              		.global	LCD_write
 954              		.thumb
 955              		.thumb_func
 956              		.type	LCD_write, %function
 957              	LCD_write:
 958              	.LFB82:
 152:..\..\..\..\..\UCA\8_Semestre\Micro 1\Community\Grove_LCD_RGB_Backlight-master\Grove_LCD_RGB_Backlight-master/easy_rgb_lcd.c **** 
 153:..\..\..\..\..\UCA\8_Semestre\Micro 1\Community\Grove_LCD_RGB_Backlight-master\Grove_LCD_RGB_Backlight-master/easy_rgb_lcd.c **** void LCD_write(uint8_t value) {
 959              		.loc 1 153 0
 960              		.cfi_startproc
 961              		@ args = 0, pretend = 0, frame = 16
 962              		@ frame_needed = 1, uses_anonymous_args = 0
 963 0000 80B5     		push	{r7, lr}
 964              		.cfi_def_cfa_offset 8
 965              		.cfi_offset 7, -8
 966              		.cfi_offset 14, -4
 967 0002 84B0     		sub	sp, sp, #16
 968              		.cfi_def_cfa_offset 24
 969 0004 00AF     		add	r7, sp, #0
 970              		.cfi_def_cfa_register 7
 971 0006 0346     		mov	r3, r0
 972 0008 FB71     		strb	r3, [r7, #7]
 154:..\..\..\..\..\UCA\8_Semestre\Micro 1\Community\Grove_LCD_RGB_Backlight-master\Grove_LCD_RGB_Backlight-master/easy_rgb_lcd.c ****     unsigned char dta[2] = {0x40, value};
 973              		.loc 1 154 0
 974 000a 4023     		movs	r3, #64
 975 000c 3B73     		strb	r3, [r7, #12]
 976 000e FB79     		ldrb	r3, [r7, #7]
 977 0010 7B73     		strb	r3, [r7, #13]
 155:..\..\..\..\..\UCA\8_Semestre\Micro 1\Community\Grove_LCD_RGB_Backlight-master\Grove_LCD_RGB_Backlight-master/easy_rgb_lcd.c ****     i2c_send_byteS(dta, 2);
 978              		.loc 1 155 0
 979 0012 07F10C03 		add	r3, r7, #12
 980 0016 0221     		movs	r1, #2
 981 0018 1846     		mov	r0, r3
 982 001a FFF7FEFF 		bl	i2c_send_byteS
 156:..\..\..\..\..\UCA\8_Semestre\Micro 1\Community\Grove_LCD_RGB_Backlight-master\Grove_LCD_RGB_Backlight-master/easy_rgb_lcd.c **** }
ARM GAS  C:\Users\elias\AppData\Local\Temp\ccDiWQJ6.s 			page 21


 983              		.loc 1 156 0
 984 001e 00BF     		nop
 985 0020 1037     		adds	r7, r7, #16
 986              		.cfi_def_cfa_offset 8
 987 0022 BD46     		mov	sp, r7
 988              		.cfi_def_cfa_register 13
 989              		@ sp needed
 990 0024 80BD     		pop	{r7, pc}
 991              		.cfi_endproc
 992              	.LFE82:
 993              		.size	LCD_write, .-LCD_write
 994 0026 00BF     		.section	.text.LCD_print,"ax",%progbits
 995              		.align	2
 996              		.global	LCD_print
 997              		.thumb
 998              		.thumb_func
 999              		.type	LCD_print, %function
 1000              	LCD_print:
 1001              	.LFB83:
 157:..\..\..\..\..\UCA\8_Semestre\Micro 1\Community\Grove_LCD_RGB_Backlight-master\Grove_LCD_RGB_Backlight-master/easy_rgb_lcd.c **** 
 158:..\..\..\..\..\UCA\8_Semestre\Micro 1\Community\Grove_LCD_RGB_Backlight-master\Grove_LCD_RGB_Backlight-master/easy_rgb_lcd.c **** void LCD_print(char* data, uint8_t size) {
 1002              		.loc 1 158 0
 1003              		.cfi_startproc
 1004              		@ args = 0, pretend = 0, frame = 8
 1005              		@ frame_needed = 1, uses_anonymous_args = 0
 1006 0000 80B5     		push	{r7, lr}
 1007              		.cfi_def_cfa_offset 8
 1008              		.cfi_offset 7, -8
 1009              		.cfi_offset 14, -4
 1010 0002 82B0     		sub	sp, sp, #8
 1011              		.cfi_def_cfa_offset 16
 1012 0004 00AF     		add	r7, sp, #0
 1013              		.cfi_def_cfa_register 7
 1014 0006 7860     		str	r0, [r7, #4]
 1015 0008 0B46     		mov	r3, r1
 1016 000a FB70     		strb	r3, [r7, #3]
 159:..\..\..\..\..\UCA\8_Semestre\Micro 1\Community\Grove_LCD_RGB_Backlight-master\Grove_LCD_RGB_Backlight-master/easy_rgb_lcd.c ****     while (size > 0) {
 1017              		.loc 1 159 0
 1018 000c 0AE0     		b	.L52
 1019              	.L53:
 160:..\..\..\..\..\UCA\8_Semestre\Micro 1\Community\Grove_LCD_RGB_Backlight-master\Grove_LCD_RGB_Backlight-master/easy_rgb_lcd.c ****         LCD_write(data[0]);
 1020              		.loc 1 160 0
 1021 000e 7B68     		ldr	r3, [r7, #4]
 1022 0010 1B78     		ldrb	r3, [r3]	@ zero_extendqisi2
 1023 0012 1846     		mov	r0, r3
 1024 0014 FFF7FEFF 		bl	LCD_write
 161:..\..\..\..\..\UCA\8_Semestre\Micro 1\Community\Grove_LCD_RGB_Backlight-master\Grove_LCD_RGB_Backlight-master/easy_rgb_lcd.c ****         data++;
 1025              		.loc 1 161 0
 1026 0018 7B68     		ldr	r3, [r7, #4]
 1027 001a 0133     		adds	r3, r3, #1
 1028 001c 7B60     		str	r3, [r7, #4]
 162:..\..\..\..\..\UCA\8_Semestre\Micro 1\Community\Grove_LCD_RGB_Backlight-master\Grove_LCD_RGB_Backlight-master/easy_rgb_lcd.c ****         size--;
 1029              		.loc 1 162 0
 1030 001e FB78     		ldrb	r3, [r7, #3]	@ zero_extendqisi2
 1031 0020 013B     		subs	r3, r3, #1
 1032 0022 FB70     		strb	r3, [r7, #3]
 1033              	.L52:
ARM GAS  C:\Users\elias\AppData\Local\Temp\ccDiWQJ6.s 			page 22


 159:..\..\..\..\..\UCA\8_Semestre\Micro 1\Community\Grove_LCD_RGB_Backlight-master\Grove_LCD_RGB_Backlight-master/easy_rgb_lcd.c ****         LCD_write(data[0]);
 1034              		.loc 1 159 0
 1035 0024 FB78     		ldrb	r3, [r7, #3]	@ zero_extendqisi2
 1036 0026 002B     		cmp	r3, #0
 1037 0028 F1D1     		bne	.L53
 163:..\..\..\..\..\UCA\8_Semestre\Micro 1\Community\Grove_LCD_RGB_Backlight-master\Grove_LCD_RGB_Backlight-master/easy_rgb_lcd.c ****     }
 164:..\..\..\..\..\UCA\8_Semestre\Micro 1\Community\Grove_LCD_RGB_Backlight-master\Grove_LCD_RGB_Backlight-master/easy_rgb_lcd.c **** }
 1038              		.loc 1 164 0
 1039 002a 00BF     		nop
 1040 002c 0837     		adds	r7, r7, #8
 1041              		.cfi_def_cfa_offset 8
 1042 002e BD46     		mov	sp, r7
 1043              		.cfi_def_cfa_register 13
 1044              		@ sp needed
 1045 0030 80BD     		pop	{r7, pc}
 1046              		.cfi_endproc
 1047              	.LFE83:
 1048              		.size	LCD_print, .-LCD_print
 1049 0032 00BF     		.section	.text.LCD_command,"ax",%progbits
 1050              		.align	2
 1051              		.global	LCD_command
 1052              		.thumb
 1053              		.thumb_func
 1054              		.type	LCD_command, %function
 1055              	LCD_command:
 1056              	.LFB84:
 165:..\..\..\..\..\UCA\8_Semestre\Micro 1\Community\Grove_LCD_RGB_Backlight-master\Grove_LCD_RGB_Backlight-master/easy_rgb_lcd.c **** 
 166:..\..\..\..\..\UCA\8_Semestre\Micro 1\Community\Grove_LCD_RGB_Backlight-master\Grove_LCD_RGB_Backlight-master/easy_rgb_lcd.c **** void LCD_command(uint8_t value) {
 1057              		.loc 1 166 0
 1058              		.cfi_startproc
 1059              		@ args = 0, pretend = 0, frame = 16
 1060              		@ frame_needed = 1, uses_anonymous_args = 0
 1061 0000 80B5     		push	{r7, lr}
 1062              		.cfi_def_cfa_offset 8
 1063              		.cfi_offset 7, -8
 1064              		.cfi_offset 14, -4
 1065 0002 84B0     		sub	sp, sp, #16
 1066              		.cfi_def_cfa_offset 24
 1067 0004 00AF     		add	r7, sp, #0
 1068              		.cfi_def_cfa_register 7
 1069 0006 0346     		mov	r3, r0
 1070 0008 FB71     		strb	r3, [r7, #7]
 167:..\..\..\..\..\UCA\8_Semestre\Micro 1\Community\Grove_LCD_RGB_Backlight-master\Grove_LCD_RGB_Backlight-master/easy_rgb_lcd.c ****     unsigned char dta[2] = {0x80, value};
 1071              		.loc 1 167 0
 1072 000a 8023     		movs	r3, #128
 1073 000c 3B73     		strb	r3, [r7, #12]
 1074 000e FB79     		ldrb	r3, [r7, #7]
 1075 0010 7B73     		strb	r3, [r7, #13]
 168:..\..\..\..\..\UCA\8_Semestre\Micro 1\Community\Grove_LCD_RGB_Backlight-master\Grove_LCD_RGB_Backlight-master/easy_rgb_lcd.c ****     i2c_send_byteS(dta, 2);
 1076              		.loc 1 168 0
 1077 0012 07F10C03 		add	r3, r7, #12
 1078 0016 0221     		movs	r1, #2
 1079 0018 1846     		mov	r0, r3
 1080 001a FFF7FEFF 		bl	i2c_send_byteS
 169:..\..\..\..\..\UCA\8_Semestre\Micro 1\Community\Grove_LCD_RGB_Backlight-master\Grove_LCD_RGB_Backlight-master/easy_rgb_lcd.c **** }
 1081              		.loc 1 169 0
 1082 001e 00BF     		nop
ARM GAS  C:\Users\elias\AppData\Local\Temp\ccDiWQJ6.s 			page 23


 1083 0020 1037     		adds	r7, r7, #16
 1084              		.cfi_def_cfa_offset 8
 1085 0022 BD46     		mov	sp, r7
 1086              		.cfi_def_cfa_register 13
 1087              		@ sp needed
 1088 0024 80BD     		pop	{r7, pc}
 1089              		.cfi_endproc
 1090              	.LFE84:
 1091              		.size	LCD_command, .-LCD_command
 1092 0026 00BF     		.section	.text.LCD_setRGB,"ax",%progbits
 1093              		.align	2
 1094              		.global	LCD_setRGB
 1095              		.thumb
 1096              		.thumb_func
 1097              		.type	LCD_setRGB, %function
 1098              	LCD_setRGB:
 1099              	.LFB85:
 170:..\..\..\..\..\UCA\8_Semestre\Micro 1\Community\Grove_LCD_RGB_Backlight-master\Grove_LCD_RGB_Backlight-master/easy_rgb_lcd.c **** 
 171:..\..\..\..\..\UCA\8_Semestre\Micro 1\Community\Grove_LCD_RGB_Backlight-master\Grove_LCD_RGB_Backlight-master/easy_rgb_lcd.c **** // Control del color
 172:..\..\..\..\..\UCA\8_Semestre\Micro 1\Community\Grove_LCD_RGB_Backlight-master\Grove_LCD_RGB_Backlight-master/easy_rgb_lcd.c **** void LCD_setRGB(unsigned char r, unsigned char g, unsigned char b) {
 1100              		.loc 1 172 0
 1101              		.cfi_startproc
 1102              		@ args = 0, pretend = 0, frame = 8
 1103              		@ frame_needed = 1, uses_anonymous_args = 0
 1104 0000 80B5     		push	{r7, lr}
 1105              		.cfi_def_cfa_offset 8
 1106              		.cfi_offset 7, -8
 1107              		.cfi_offset 14, -4
 1108 0002 82B0     		sub	sp, sp, #8
 1109              		.cfi_def_cfa_offset 16
 1110 0004 00AF     		add	r7, sp, #0
 1111              		.cfi_def_cfa_register 7
 1112 0006 0346     		mov	r3, r0
 1113 0008 FB71     		strb	r3, [r7, #7]
 1114 000a 0B46     		mov	r3, r1
 1115 000c BB71     		strb	r3, [r7, #6]
 1116 000e 1346     		mov	r3, r2
 1117 0010 7B71     		strb	r3, [r7, #5]
 173:..\..\..\..\..\UCA\8_Semestre\Micro 1\Community\Grove_LCD_RGB_Backlight-master\Grove_LCD_RGB_Backlight-master/easy_rgb_lcd.c ****     LCD_setReg(REG_RED, r);
 1118              		.loc 1 173 0
 1119 0012 FB79     		ldrb	r3, [r7, #7]	@ zero_extendqisi2
 1120 0014 1946     		mov	r1, r3
 1121 0016 0420     		movs	r0, #4
 1122 0018 FFF7FEFF 		bl	LCD_setReg
 174:..\..\..\..\..\UCA\8_Semestre\Micro 1\Community\Grove_LCD_RGB_Backlight-master\Grove_LCD_RGB_Backlight-master/easy_rgb_lcd.c ****     LCD_setReg(REG_GREEN, g);
 1123              		.loc 1 174 0
 1124 001c BB79     		ldrb	r3, [r7, #6]	@ zero_extendqisi2
 1125 001e 1946     		mov	r1, r3
 1126 0020 0320     		movs	r0, #3
 1127 0022 FFF7FEFF 		bl	LCD_setReg
 175:..\..\..\..\..\UCA\8_Semestre\Micro 1\Community\Grove_LCD_RGB_Backlight-master\Grove_LCD_RGB_Backlight-master/easy_rgb_lcd.c ****     LCD_setReg(REG_BLUE, b);
 1128              		.loc 1 175 0
 1129 0026 7B79     		ldrb	r3, [r7, #5]	@ zero_extendqisi2
 1130 0028 1946     		mov	r1, r3
 1131 002a 0220     		movs	r0, #2
 1132 002c FFF7FEFF 		bl	LCD_setReg
 176:..\..\..\..\..\UCA\8_Semestre\Micro 1\Community\Grove_LCD_RGB_Backlight-master\Grove_LCD_RGB_Backlight-master/easy_rgb_lcd.c **** }
ARM GAS  C:\Users\elias\AppData\Local\Temp\ccDiWQJ6.s 			page 24


 1133              		.loc 1 176 0
 1134 0030 00BF     		nop
 1135 0032 0837     		adds	r7, r7, #8
 1136              		.cfi_def_cfa_offset 8
 1137 0034 BD46     		mov	sp, r7
 1138              		.cfi_def_cfa_register 13
 1139              		@ sp needed
 1140 0036 80BD     		pop	{r7, pc}
 1141              		.cfi_endproc
 1142              	.LFE85:
 1143              		.size	LCD_setRGB, .-LCD_setRGB
 1144              		.section	.text.LCD_setPWM,"ax",%progbits
 1145              		.align	2
 1146              		.global	LCD_setPWM
 1147              		.thumb
 1148              		.thumb_func
 1149              		.type	LCD_setPWM, %function
 1150              	LCD_setPWM:
 1151              	.LFB86:
 177:..\..\..\..\..\UCA\8_Semestre\Micro 1\Community\Grove_LCD_RGB_Backlight-master\Grove_LCD_RGB_Backlight-master/easy_rgb_lcd.c **** 
 178:..\..\..\..\..\UCA\8_Semestre\Micro 1\Community\Grove_LCD_RGB_Backlight-master\Grove_LCD_RGB_Backlight-master/easy_rgb_lcd.c **** void LCD_setPWM(unsigned char color, unsigned char pwm) {
 1152              		.loc 1 178 0
 1153              		.cfi_startproc
 1154              		@ args = 0, pretend = 0, frame = 8
 1155              		@ frame_needed = 1, uses_anonymous_args = 0
 1156 0000 80B5     		push	{r7, lr}
 1157              		.cfi_def_cfa_offset 8
 1158              		.cfi_offset 7, -8
 1159              		.cfi_offset 14, -4
 1160 0002 82B0     		sub	sp, sp, #8
 1161              		.cfi_def_cfa_offset 16
 1162 0004 00AF     		add	r7, sp, #0
 1163              		.cfi_def_cfa_register 7
 1164 0006 0346     		mov	r3, r0
 1165 0008 0A46     		mov	r2, r1
 1166 000a FB71     		strb	r3, [r7, #7]
 1167 000c 1346     		mov	r3, r2
 1168 000e BB71     		strb	r3, [r7, #6]
 179:..\..\..\..\..\UCA\8_Semestre\Micro 1\Community\Grove_LCD_RGB_Backlight-master\Grove_LCD_RGB_Backlight-master/easy_rgb_lcd.c ****     LCD_setReg(color, pwm);
 1169              		.loc 1 179 0
 1170 0010 BA79     		ldrb	r2, [r7, #6]	@ zero_extendqisi2
 1171 0012 FB79     		ldrb	r3, [r7, #7]	@ zero_extendqisi2
 1172 0014 1146     		mov	r1, r2
 1173 0016 1846     		mov	r0, r3
 1174 0018 FFF7FEFF 		bl	LCD_setReg
 180:..\..\..\..\..\UCA\8_Semestre\Micro 1\Community\Grove_LCD_RGB_Backlight-master\Grove_LCD_RGB_Backlight-master/easy_rgb_lcd.c **** }
 1175              		.loc 1 180 0
 1176 001c 00BF     		nop
 1177 001e 0837     		adds	r7, r7, #8
 1178              		.cfi_def_cfa_offset 8
 1179 0020 BD46     		mov	sp, r7
 1180              		.cfi_def_cfa_register 13
 1181              		@ sp needed
 1182 0022 80BD     		pop	{r7, pc}
 1183              		.cfi_endproc
 1184              	.LFE86:
 1185              		.size	LCD_setPWM, .-LCD_setPWM
ARM GAS  C:\Users\elias\AppData\Local\Temp\ccDiWQJ6.s 			page 25


 1186              		.global	color_define
 1187              		.section	.rodata
 1188              		.align	2
 1189              		.type	color_define, %object
 1190              		.size	color_define, 12
 1191              	color_define:
 1192 0000 FF       		.byte	-1
 1193 0001 FF       		.byte	-1
 1194 0002 FF       		.byte	-1
 1195 0003 FF       		.byte	-1
 1196 0004 00       		.byte	0
 1197 0005 00       		.byte	0
 1198 0006 00       		.byte	0
 1199 0007 FF       		.byte	-1
 1200 0008 00       		.byte	0
 1201 0009 00       		.byte	0
 1202 000a 00       		.byte	0
 1203 000b FF       		.byte	-1
 1204              		.section	.text.LCD_setColor,"ax",%progbits
 1205              		.align	2
 1206              		.global	LCD_setColor
 1207              		.thumb
 1208              		.thumb_func
 1209              		.type	LCD_setColor, %function
 1210              	LCD_setColor:
 1211              	.LFB87:
 181:..\..\..\..\..\UCA\8_Semestre\Micro 1\Community\Grove_LCD_RGB_Backlight-master\Grove_LCD_RGB_Backlight-master/easy_rgb_lcd.c **** 
 182:..\..\..\..\..\UCA\8_Semestre\Micro 1\Community\Grove_LCD_RGB_Backlight-master\Grove_LCD_RGB_Backlight-master/easy_rgb_lcd.c **** const unsigned char color_define[4][3] = {
 183:..\..\..\..\..\UCA\8_Semestre\Micro 1\Community\Grove_LCD_RGB_Backlight-master\Grove_LCD_RGB_Backlight-master/easy_rgb_lcd.c ****     {255, 255, 255},  // Blanco
 184:..\..\..\..\..\UCA\8_Semestre\Micro 1\Community\Grove_LCD_RGB_Backlight-master\Grove_LCD_RGB_Backlight-master/easy_rgb_lcd.c ****     {255, 0, 0},      // Rojo
 185:..\..\..\..\..\UCA\8_Semestre\Micro 1\Community\Grove_LCD_RGB_Backlight-master\Grove_LCD_RGB_Backlight-master/easy_rgb_lcd.c ****     {0, 255, 0},      // Verde
 186:..\..\..\..\..\UCA\8_Semestre\Micro 1\Community\Grove_LCD_RGB_Backlight-master\Grove_LCD_RGB_Backlight-master/easy_rgb_lcd.c ****     {0, 0, 255},      // Azul
 187:..\..\..\..\..\UCA\8_Semestre\Micro 1\Community\Grove_LCD_RGB_Backlight-master\Grove_LCD_RGB_Backlight-master/easy_rgb_lcd.c **** };
 188:..\..\..\..\..\UCA\8_Semestre\Micro 1\Community\Grove_LCD_RGB_Backlight-master\Grove_LCD_RGB_Backlight-master/easy_rgb_lcd.c **** 
 189:..\..\..\..\..\UCA\8_Semestre\Micro 1\Community\Grove_LCD_RGB_Backlight-master\Grove_LCD_RGB_Backlight-master/easy_rgb_lcd.c **** void LCD_setColor(unsigned char color) {
 1212              		.loc 1 189 0
 1213              		.cfi_startproc
 1214              		@ args = 0, pretend = 0, frame = 8
 1215              		@ frame_needed = 1, uses_anonymous_args = 0
 1216 0000 90B5     		push	{r4, r7, lr}
 1217              		.cfi_def_cfa_offset 12
 1218              		.cfi_offset 4, -12
 1219              		.cfi_offset 7, -8
 1220              		.cfi_offset 14, -4
 1221 0002 83B0     		sub	sp, sp, #12
 1222              		.cfi_def_cfa_offset 24
 1223 0004 00AF     		add	r7, sp, #0
 1224              		.cfi_def_cfa_register 7
 1225 0006 0346     		mov	r3, r0
 1226 0008 FB71     		strb	r3, [r7, #7]
 190:..\..\..\..\..\UCA\8_Semestre\Micro 1\Community\Grove_LCD_RGB_Backlight-master\Grove_LCD_RGB_Backlight-master/easy_rgb_lcd.c ****     if (color > 3) return;
 1227              		.loc 1 190 0
 1228 000a FB79     		ldrb	r3, [r7, #7]	@ zero_extendqisi2
 1229 000c 032B     		cmp	r3, #3
 1230 000e 1BD8     		bhi	.L60
 191:..\..\..\..\..\UCA\8_Semestre\Micro 1\Community\Grove_LCD_RGB_Backlight-master\Grove_LCD_RGB_Backlight-master/easy_rgb_lcd.c ****     LCD_setRGB(color_define[color][0], color_define[color][1], color_define[color][2]);
 1231              		.loc 1 191 0
ARM GAS  C:\Users\elias\AppData\Local\Temp\ccDiWQJ6.s 			page 26


 1232 0010 FA79     		ldrb	r2, [r7, #7]	@ zero_extendqisi2
 1233 0012 0F49     		ldr	r1, .L61
 1234 0014 1346     		mov	r3, r2
 1235 0016 5B00     		lsls	r3, r3, #1
 1236 0018 1344     		add	r3, r3, r2
 1237 001a 0B44     		add	r3, r3, r1
 1238 001c 1878     		ldrb	r0, [r3]	@ zero_extendqisi2
 1239 001e FA79     		ldrb	r2, [r7, #7]	@ zero_extendqisi2
 1240 0020 0B49     		ldr	r1, .L61
 1241 0022 1346     		mov	r3, r2
 1242 0024 5B00     		lsls	r3, r3, #1
 1243 0026 1344     		add	r3, r3, r2
 1244 0028 0B44     		add	r3, r3, r1
 1245 002a 0133     		adds	r3, r3, #1
 1246 002c 1C78     		ldrb	r4, [r3]	@ zero_extendqisi2
 1247 002e FA79     		ldrb	r2, [r7, #7]	@ zero_extendqisi2
 1248 0030 0749     		ldr	r1, .L61
 1249 0032 1346     		mov	r3, r2
 1250 0034 5B00     		lsls	r3, r3, #1
 1251 0036 1344     		add	r3, r3, r2
 1252 0038 0B44     		add	r3, r3, r1
 1253 003a 0233     		adds	r3, r3, #2
 1254 003c 1B78     		ldrb	r3, [r3]	@ zero_extendqisi2
 1255 003e 1A46     		mov	r2, r3
 1256 0040 2146     		mov	r1, r4
 1257 0042 FFF7FEFF 		bl	LCD_setRGB
 1258 0046 00E0     		b	.L57
 1259              	.L60:
 190:..\..\..\..\..\UCA\8_Semestre\Micro 1\Community\Grove_LCD_RGB_Backlight-master\Grove_LCD_RGB_Backlight-master/easy_rgb_lcd.c ****     if (color > 3) return;
 1260              		.loc 1 190 0
 1261 0048 00BF     		nop
 1262              	.L57:
 192:..\..\..\..\..\UCA\8_Semestre\Micro 1\Community\Grove_LCD_RGB_Backlight-master\Grove_LCD_RGB_Backlight-master/easy_rgb_lcd.c **** }
 1263              		.loc 1 192 0
 1264 004a 0C37     		adds	r7, r7, #12
 1265              		.cfi_def_cfa_offset 12
 1266 004c BD46     		mov	sp, r7
 1267              		.cfi_def_cfa_register 13
 1268              		@ sp needed
 1269 004e 90BD     		pop	{r4, r7, pc}
 1270              	.L62:
 1271              		.align	2
 1272              	.L61:
 1273 0050 00000000 		.word	color_define
 1274              		.cfi_endproc
 1275              	.LFE87:
 1276              		.size	LCD_setColor, .-LCD_setColor
 1277              		.section	.text.LCD_setColorAll,"ax",%progbits
 1278              		.align	2
 1279              		.global	LCD_setColorAll
 1280              		.thumb
 1281              		.thumb_func
 1282              		.type	LCD_setColorAll, %function
 1283              	LCD_setColorAll:
 1284              	.LFB88:
 193:..\..\..\..\..\UCA\8_Semestre\Micro 1\Community\Grove_LCD_RGB_Backlight-master\Grove_LCD_RGB_Backlight-master/easy_rgb_lcd.c **** 
 194:..\..\..\..\..\UCA\8_Semestre\Micro 1\Community\Grove_LCD_RGB_Backlight-master\Grove_LCD_RGB_Backlight-master/easy_rgb_lcd.c **** void LCD_setColorAll(void) {
ARM GAS  C:\Users\elias\AppData\Local\Temp\ccDiWQJ6.s 			page 27


 1285              		.loc 1 194 0
 1286              		.cfi_startproc
 1287              		@ args = 0, pretend = 0, frame = 0
 1288              		@ frame_needed = 1, uses_anonymous_args = 0
 1289 0000 80B5     		push	{r7, lr}
 1290              		.cfi_def_cfa_offset 8
 1291              		.cfi_offset 7, -8
 1292              		.cfi_offset 14, -4
 1293 0002 00AF     		add	r7, sp, #0
 1294              		.cfi_def_cfa_register 7
 195:..\..\..\..\..\UCA\8_Semestre\Micro 1\Community\Grove_LCD_RGB_Backlight-master\Grove_LCD_RGB_Backlight-master/easy_rgb_lcd.c ****     LCD_setRGB(0, 0, 0);
 1295              		.loc 1 195 0
 1296 0004 0022     		movs	r2, #0
 1297 0006 0021     		movs	r1, #0
 1298 0008 0020     		movs	r0, #0
 1299 000a FFF7FEFF 		bl	LCD_setRGB
 196:..\..\..\..\..\UCA\8_Semestre\Micro 1\Community\Grove_LCD_RGB_Backlight-master\Grove_LCD_RGB_Backlight-master/easy_rgb_lcd.c **** }
 1300              		.loc 1 196 0
 1301 000e 00BF     		nop
 1302 0010 80BD     		pop	{r7, pc}
 1303              		.cfi_endproc
 1304              	.LFE88:
 1305              		.size	LCD_setColorAll, .-LCD_setColorAll
 1306 0012 00BF     		.section	.text.LCD_setColorWhite,"ax",%progbits
 1307              		.align	2
 1308              		.global	LCD_setColorWhite
 1309              		.thumb
 1310              		.thumb_func
 1311              		.type	LCD_setColorWhite, %function
 1312              	LCD_setColorWhite:
 1313              	.LFB89:
 197:..\..\..\..\..\UCA\8_Semestre\Micro 1\Community\Grove_LCD_RGB_Backlight-master\Grove_LCD_RGB_Backlight-master/easy_rgb_lcd.c **** 
 198:..\..\..\..\..\UCA\8_Semestre\Micro 1\Community\Grove_LCD_RGB_Backlight-master\Grove_LCD_RGB_Backlight-master/easy_rgb_lcd.c **** void LCD_setColorWhite(void) {
 1314              		.loc 1 198 0
 1315              		.cfi_startproc
 1316              		@ args = 0, pretend = 0, frame = 0
 1317              		@ frame_needed = 1, uses_anonymous_args = 0
 1318 0000 80B5     		push	{r7, lr}
 1319              		.cfi_def_cfa_offset 8
 1320              		.cfi_offset 7, -8
 1321              		.cfi_offset 14, -4
 1322 0002 00AF     		add	r7, sp, #0
 1323              		.cfi_def_cfa_register 7
 199:..\..\..\..\..\UCA\8_Semestre\Micro 1\Community\Grove_LCD_RGB_Backlight-master\Grove_LCD_RGB_Backlight-master/easy_rgb_lcd.c ****     LCD_setRGB(255, 255, 255);
 1324              		.loc 1 199 0
 1325 0004 FF22     		movs	r2, #255
 1326 0006 FF21     		movs	r1, #255
 1327 0008 FF20     		movs	r0, #255
 1328 000a FFF7FEFF 		bl	LCD_setRGB
 200:..\..\..\..\..\UCA\8_Semestre\Micro 1\Community\Grove_LCD_RGB_Backlight-master\Grove_LCD_RGB_Backlight-master/easy_rgb_lcd.c **** }
 1329              		.loc 1 200 0
 1330 000e 00BF     		nop
 1331 0010 80BD     		pop	{r7, pc}
 1332              		.cfi_endproc
 1333              	.LFE89:
 1334              		.size	LCD_setColorWhite, .-LCD_setColorWhite
 1335 0012 00BF     		.text
ARM GAS  C:\Users\elias\AppData\Local\Temp\ccDiWQJ6.s 			page 28


 1336              	.Letext0:
 1337              		.file 2 "c:\\program files (x86)\\cypress\\psoc creator\\4.4\\psoc creator\\import\\gnu\\arm\\5.4.
 1338              		.file 3 "c:\\program files (x86)\\cypress\\psoc creator\\4.4\\psoc creator\\import\\gnu\\arm\\5.4.
 1339              		.file 4 "Generated_Source\\PSoC5/core_cm3.h"