ARM GAS  C:\Users\elias\AppData\Local\Temp\ccXCcqQZ.s 			page 1


   1              		.syntax unified
   2              		.cpu cortex-m3
   3              		.fpu softvfp
   4              		.eabi_attribute 20, 1
   5              		.eabi_attribute 21, 1
   6              		.eabi_attribute 23, 3
   7              		.eabi_attribute 24, 1
   8              		.eabi_attribute 25, 1
   9              		.eabi_attribute 26, 1
  10              		.eabi_attribute 30, 6
  11              		.eabi_attribute 34, 1
  12              		.eabi_attribute 18, 4
  13              		.thumb
  14              		.syntax unified
  15              		.file	"main.c"
  16              		.text
  17              	.Ltext0:
  18              		.cfi_sections	.debug_frame
  19              		.comm	buffer,100,4
  20              		.syntax unified
  21              		.global _printf_float
  22              		.thumb
  23              		.syntax unified
  24              		.global	button
  25              		.bss
  26              		.align	1
  27              		.type	button, %object
  28              		.size	button, 2
  29              	button:
  30 0000 0000     		.space	2
  31              		.global	conversionIsStarted
  32              		.type	conversionIsStarted, %object
  33              		.size	conversionIsStarted, 1
  34              	conversionIsStarted:
  35 0002 00       		.space	1
  36              		.global	conversionIsEnded
  37              		.type	conversionIsEnded, %object
  38              		.size	conversionIsEnded, 1
  39              	conversionIsEnded:
  40 0003 00       		.space	1
  41              		.comm	potBits,2,4
  42              		.section	.text.myStart,"ax",%progbits
  43              		.align	2
  44              		.global	myStart
  45              		.thumb
  46              		.thumb_func
  47              		.type	myStart, %function
  48              	myStart:
  49              	.LFB64:
  50              		.file 1 "main.c"
   1:main.c        **** /* ========================================
   2:main.c        ****  *
   3:main.c        ****  * Copyright YOUR COMPANY, THE YEAR
   4:main.c        ****  * All Rights Reserved
   5:main.c        ****  * UNPUBLISHED, LICENSED SOFTWARE.
   6:main.c        ****  *
   7:main.c        ****  * CONFIDENTIAL AND PROPRIETARY INFORMATION
ARM GAS  C:\Users\elias\AppData\Local\Temp\ccXCcqQZ.s 			page 2


   8:main.c        ****  * WHICH IS THE PROPERTY OF your company.
   9:main.c        ****  *
  10:main.c        ****  * ========================================
  11:main.c        **** */
  12:main.c        **** #include "project.h"
  13:main.c        **** #include "keyboard.h"
  14:main.c        **** //#include "servo.h"
  15:main.c        **** 
  16:main.c        **** //Definiciones Logicas
  17:main.c        **** #define TRUE  1
  18:main.c        **** #define FALSE 0
  19:main.c        **** 
  20:main.c        **** #define POT_MAX 1
  21:main.c        **** 
  22:main.c        **** #define MAX_BUFFER 100
  23:main.c        **** char buffer[MAX_BUFFER];
  24:main.c        **** CY_ISR_PROTO(readPot);
  25:main.c        **** 
  26:main.c        **** #if defined (__GNUC__)
  27:main.c        ****     asm(".global _printf_float");
  28:main.c        **** #endif
  29:main.c        **** 
  30:main.c        **** uint16_t button = 0;
  31:main.c        **** uint8_t conversionIsStarted = FALSE;
  32:main.c        **** uint8_t conversionIsEnded = FALSE;
  33:main.c        **** 
  34:main.c        **** uint16 potBits[POT_MAX];
  35:main.c        **** void myStart()
  36:main.c        **** {
  51              		.loc 1 36 0
  52              		.cfi_startproc
  53              		@ args = 0, pretend = 0, frame = 0
  54              		@ frame_needed = 1, uses_anonymous_args = 0
  55 0000 80B5     		push	{r7, lr}
  56              		.cfi_def_cfa_offset 8
  57              		.cfi_offset 7, -8
  58              		.cfi_offset 14, -4
  59 0002 00AF     		add	r7, sp, #0
  60              		.cfi_def_cfa_register 7
  37:main.c        ****     PC_Start();
  61              		.loc 1 37 0
  62 0004 FFF7FEFF 		bl	PC_Start
  38:main.c        ****     PWM1_Start();
  63              		.loc 1 38 0
  64 0008 FFF7FEFF 		bl	PWM1_Start
  39:main.c        ****     PWM2_Start();
  65              		.loc 1 39 0
  66 000c FFF7FEFF 		bl	PWM2_Start
  40:main.c        ****     I2C_LCD_Start();
  67              		.loc 1 40 0
  68 0010 FFF7FEFF 		bl	I2C_LCD_Start
  41:main.c        ****     POT_Start();
  69              		.loc 1 41 0
  70 0014 FFF7FEFF 		bl	POT_Start
  42:main.c        ****     
  43:main.c        ****     
  44:main.c        ****     conversionIsStarted = FALSE;
ARM GAS  C:\Users\elias\AppData\Local\Temp\ccXCcqQZ.s 			page 3


  71              		.loc 1 44 0
  72 0018 034B     		ldr	r3, .L2
  73 001a 0022     		movs	r2, #0
  74 001c 1A70     		strb	r2, [r3]
  45:main.c        ****     button = 0;
  75              		.loc 1 45 0
  76 001e 034B     		ldr	r3, .L2+4
  77 0020 0022     		movs	r2, #0
  78 0022 1A80     		strh	r2, [r3]	@ movhi
  46:main.c        **** }
  79              		.loc 1 46 0
  80 0024 00BF     		nop
  81 0026 80BD     		pop	{r7, pc}
  82              	.L3:
  83              		.align	2
  84              	.L2:
  85 0028 00000000 		.word	conversionIsStarted
  86 002c 00000000 		.word	button
  87              		.cfi_endproc
  88              	.LFE64:
  89              		.size	myStart, .-myStart
  90              		.global	__aeabi_i2d
  91              		.global	__aeabi_dmul
  92              		.global	__aeabi_dsub
  93              		.global	__aeabi_d2uiz
  94              		.section	.text.potBitsToPulse,"ax",%progbits
  95              		.align	2
  96              		.global	potBitsToPulse
  97              		.thumb
  98              		.thumb_func
  99              		.type	potBitsToPulse, %function
 100              	potBitsToPulse:
 101              	.LFB65:
  47:main.c        **** 
  48:main.c        **** #define PULSE_MIN 99u
  49:main.c        **** #define PULSE_MAX 399u
  50:main.c        **** #define BITS_MIN (uint16_t)819
  51:main.c        **** #define BITS_MAX (uint16_t)3276
  52:main.c        **** // Asegúrate de que la división ocurra como doble precisión
  53:main.c        **** #define SLOPE_BITS_TO_PULSE ((double)(PULSE_MAX - PULSE_MIN) / (double)(BITS_MAX - BITS_MIN))
  54:main.c        **** // Corregir paréntesis de cierre y usar la constante correcta
  55:main.c        **** #define OFFSET_BITS_TO_PULSE ((double)(PULSE_MIN - SLOPE_BITS_TO_PULSE * BITS_MIN))
  56:main.c        **** 
  57:main.c        **** uint16_t potBitsToPulse(uint16_t bits){
 102              		.loc 1 57 0
 103              		.cfi_startproc
 104              		@ args = 0, pretend = 0, frame = 8
 105              		@ frame_needed = 1, uses_anonymous_args = 0
 106 0000 90B5     		push	{r4, r7, lr}
 107              		.cfi_def_cfa_offset 12
 108              		.cfi_offset 4, -12
 109              		.cfi_offset 7, -8
 110              		.cfi_offset 14, -4
 111 0002 83B0     		sub	sp, sp, #12
 112              		.cfi_def_cfa_offset 24
 113 0004 00AF     		add	r7, sp, #0
 114              		.cfi_def_cfa_register 7
ARM GAS  C:\Users\elias\AppData\Local\Temp\ccXCcqQZ.s 			page 4


 115 0006 0346     		mov	r3, r0
 116 0008 FB80     		strh	r3, [r7, #6]	@ movhi
  58:main.c        ****     if(BITS_MIN > bits)
 117              		.loc 1 58 0
 118 000a FB88     		ldrh	r3, [r7, #6]
 119 000c 40F23232 		movw	r2, #818
 120 0010 9342     		cmp	r3, r2
 121 0012 01D8     		bhi	.L5
  59:main.c        ****         return PULSE_MIN;
 122              		.loc 1 59 0
 123 0014 6323     		movs	r3, #99
 124 0016 21E0     		b	.L6
 125              	.L5:
  60:main.c        ****     if(bits > BITS_MAX)
 126              		.loc 1 60 0
 127 0018 FB88     		ldrh	r3, [r7, #6]
 128 001a 40F6CC42 		movw	r2, #3276
 129 001e 9342     		cmp	r3, r2
 130 0020 02D9     		bls	.L7
  61:main.c        ****         return PULSE_MAX;
 131              		.loc 1 61 0
 132 0022 40F28F13 		movw	r3, #399
 133 0026 19E0     		b	.L6
 134              	.L7:
  62:main.c        ****     return (uint16_t)(SLOPE_BITS_TO_PULSE * bits + OFFSET_BITS_TO_PULSE);
 135              		.loc 1 62 0
 136 0028 FB88     		ldrh	r3, [r7, #6]
 137 002a 1846     		mov	r0, r3
 138 002c FFF7FEFF 		bl	__aeabi_i2d
 139 0030 0DA3     		adr	r3, .L8
 140 0032 D3E90023 		ldrd	r2, [r3]
 141 0036 FFF7FEFF 		bl	__aeabi_dmul
 142 003a 0346     		mov	r3, r0
 143 003c 0C46     		mov	r4, r1
 144 003e 1846     		mov	r0, r3
 145 0040 2146     		mov	r1, r4
 146 0042 4FF00002 		mov	r2, #0
 147 0046 0A4B     		ldr	r3, .L8+8
 148 0048 FFF7FEFF 		bl	__aeabi_dsub
 149 004c 0346     		mov	r3, r0
 150 004e 0C46     		mov	r4, r1
 151 0050 1846     		mov	r0, r3
 152 0052 2146     		mov	r1, r4
 153 0054 FFF7FEFF 		bl	__aeabi_d2uiz
 154 0058 0346     		mov	r3, r0
 155 005a 9BB2     		uxth	r3, r3
 156              	.L6:
  63:main.c        **** }
 157              		.loc 1 63 0
 158 005c 1846     		mov	r0, r3
 159 005e 0C37     		adds	r7, r7, #12
 160              		.cfi_def_cfa_offset 12
 161 0060 BD46     		mov	sp, r7
 162              		.cfi_def_cfa_register 13
 163              		@ sp needed
 164 0062 90BD     		pop	{r4, r7, pc}
 165              	.L9:
ARM GAS  C:\Users\elias\AppData\Local\Temp\ccXCcqQZ.s 			page 5


 166 0064 AFF30080 		.align	3
 167              	.L8:
 168 0068 1FF4411F 		.word	524416031
 169 006c F441BF3F 		.word	1069498868
 170 0070 0000F03F 		.word	1072693248
 171              		.cfi_endproc
 172              	.LFE65:
 173              		.size	potBitsToPulse, .-potBitsToPulse
 174              		.comm	bits_pot_value,2,2
 175              		.section	.text.testPot,"ax",%progbits
 176              		.align	2
 177              		.global	testPot
 178              		.thumb
 179              		.thumb_func
 180              		.type	testPot, %function
 181              	testPot:
 182              	.LFB66:
  64:main.c        **** 
  65:main.c        **** uint16_t bits_pot_value;
  66:main.c        **** uint8_t testPot()
  67:main.c        **** {
 183              		.loc 1 67 0
 184              		.cfi_startproc
 185              		@ args = 0, pretend = 0, frame = 8
 186              		@ frame_needed = 1, uses_anonymous_args = 0
 187 0000 80B5     		push	{r7, lr}
 188              		.cfi_def_cfa_offset 8
 189              		.cfi_offset 7, -8
 190              		.cfi_offset 14, -4
 191 0002 82B0     		sub	sp, sp, #8
 192              		.cfi_def_cfa_offset 16
 193 0004 00AF     		add	r7, sp, #0
 194              		.cfi_def_cfa_register 7
  68:main.c        ****     uint8_t result = FALSE;
 195              		.loc 1 68 0
 196 0006 0023     		movs	r3, #0
 197 0008 FB71     		strb	r3, [r7, #7]
  69:main.c        ****     if(!conversionIsStarted)
 198              		.loc 1 69 0
 199 000a 104B     		ldr	r3, .L14
 200 000c 1B78     		ldrb	r3, [r3]	@ zero_extendqisi2
 201 000e 002B     		cmp	r3, #0
 202 0010 05D1     		bne	.L11
  70:main.c        ****     {
  71:main.c        ****        conversionIsStarted = TRUE;
 203              		.loc 1 71 0
 204 0012 0E4B     		ldr	r3, .L14
 205 0014 0122     		movs	r2, #1
 206 0016 1A70     		strb	r2, [r3]
  72:main.c        ****        POT_StartConvert();
 207              		.loc 1 72 0
 208 0018 FFF7FEFF 		bl	POT_StartConvert
 209 001c 10E0     		b	.L12
 210              	.L11:
  73:main.c        ****     }else if(POT_IsEndConversion(POT_RETURN_STATUS))
 211              		.loc 1 73 0
 212 001e 0120     		movs	r0, #1
ARM GAS  C:\Users\elias\AppData\Local\Temp\ccXCcqQZ.s 			page 6


 213 0020 FFF7FEFF 		bl	POT_IsEndConversion
 214 0024 0346     		mov	r3, r0
 215 0026 002B     		cmp	r3, #0
 216 0028 0AD0     		beq	.L12
  74:main.c        ****     {
  75:main.c        ****         
  76:main.c        **** //        for(uint8_t i = 0;i<POT_MAX;i++)
  77:main.c        **** //            potBits[i] = POT_GetResult16(i);
  78:main.c        ****         //PC_PutString("Leyendo potenciometro...\n\r");
  79:main.c        ****         bits_pot_value = POT_GetResult16();
 217              		.loc 1 79 0
 218 002a FFF7FEFF 		bl	POT_GetResult16
 219 002e 0346     		mov	r3, r0
 220 0030 9AB2     		uxth	r2, r3
 221 0032 074B     		ldr	r3, .L14+4
 222 0034 1A80     		strh	r2, [r3]	@ movhi
  80:main.c        ****         //snprintf(buffer, MAX_BUFFER, "Valor bruto: %d\n\r", raw_value);
  81:main.c        ****         //PC_PutString(buffer);
  82:main.c        ****         //snprintf(buffer,MAX_BUFFER,"Valor = %i\n\r",potBits[0]);
  83:main.c        ****         //PC_PutString(buffer);
  84:main.c        ****         result = TRUE;
 223              		.loc 1 84 0
 224 0036 0123     		movs	r3, #1
 225 0038 FB71     		strb	r3, [r7, #7]
  85:main.c        ****         conversionIsStarted = FALSE;
 226              		.loc 1 85 0
 227 003a 044B     		ldr	r3, .L14
 228 003c 0022     		movs	r2, #0
 229 003e 1A70     		strb	r2, [r3]
 230              	.L12:
  86:main.c        ****         
  87:main.c        ****     }
  88:main.c        ****     return result;
 231              		.loc 1 88 0
 232 0040 FB79     		ldrb	r3, [r7, #7]	@ zero_extendqisi2
  89:main.c        **** }
 233              		.loc 1 89 0
 234 0042 1846     		mov	r0, r3
 235 0044 0837     		adds	r7, r7, #8
 236              		.cfi_def_cfa_offset 8
 237 0046 BD46     		mov	sp, r7
 238              		.cfi_def_cfa_register 13
 239              		@ sp needed
 240 0048 80BD     		pop	{r7, pc}
 241              	.L15:
 242 004a 00BF     		.align	2
 243              	.L14:
 244 004c 00000000 		.word	conversionIsStarted
 245 0050 00000000 		.word	bits_pot_value
 246              		.cfi_endproc
 247              	.LFE66:
 248              		.size	testPot, .-testPot
 249              		.section	.rodata
 250              		.align	2
 251              	.LC0:
 252 0000 25690A0D 		.ascii	"%i\012\015\000"
 252      00
ARM GAS  C:\Users\elias\AppData\Local\Temp\ccXCcqQZ.s 			page 7


 253              		.section	.text.main,"ax",%progbits
 254              		.align	2
 255              		.global	main
 256              		.thumb
 257              		.thumb_func
 258              		.type	main, %function
 259              	main:
 260              	.LFB67:
  90:main.c        **** 
  91:main.c        **** 
  92:main.c        **** int main(void)
  93:main.c        **** {
 261              		.loc 1 93 0
 262              		.cfi_startproc
 263              		@ args = 0, pretend = 0, frame = 8
 264              		@ frame_needed = 1, uses_anonymous_args = 0
 265 0000 80B5     		push	{r7, lr}
 266              		.cfi_def_cfa_offset 8
 267              		.cfi_offset 7, -8
 268              		.cfi_offset 14, -4
 269 0002 82B0     		sub	sp, sp, #8
 270              		.cfi_def_cfa_offset 16
 271 0004 00AF     		add	r7, sp, #0
 272              		.cfi_def_cfa_register 7
  94:main.c        ****     CyGlobalIntEnable; /* Enable global interrupts. */
 273              		.loc 1 94 0
 274              		.syntax unified
 275              	@ 94 "main.c" 1
 276 0006 62B6     		CPSIE   i
 277              	@ 0 "" 2
  95:main.c        ****     myStart();
 278              		.loc 1 95 0
 279              		.thumb
 280              		.syntax unified
 281 0008 FFF7FEFF 		bl	myStart
 282              	.L18:
  96:main.c        ****     
  97:main.c        ****     
  98:main.c        ****     /* Place your initialization/startup code here (e.g. MyInst_Start()) */
  99:main.c        ****     for(;;)
 100:main.c        ****     {
 101:main.c        ****         //PC_PutString("XD");
 102:main.c        ****         //button = debouncer(keyboard_out_Write,keyboard_in_Read);
 103:main.c        ****         //echoButton(button,buffer, MAX_BUFFER, PC_PutString);
 104:main.c        ****         if(testPot()){
 283              		.loc 1 104 0
 284 000c FFF7FEFF 		bl	testPot
 285 0010 0346     		mov	r3, r0
 286 0012 002B     		cmp	r3, #0
 287 0014 13D0     		beq	.L17
 288              	.LBB2:
 105:main.c        ****             uint16_t aux = potBitsToPulse(bits_pot_value);
 289              		.loc 1 105 0
 290 0016 0C4B     		ldr	r3, .L19
 291 0018 1B88     		ldrh	r3, [r3]
 292 001a 1846     		mov	r0, r3
 293 001c FFF7FEFF 		bl	potBitsToPulse
ARM GAS  C:\Users\elias\AppData\Local\Temp\ccXCcqQZ.s 			page 8


 294 0020 0346     		mov	r3, r0
 295 0022 FB80     		strh	r3, [r7, #6]	@ movhi
 106:main.c        ****             PWM1_WriteCompare1(aux);
 296              		.loc 1 106 0
 297 0024 FB88     		ldrh	r3, [r7, #6]
 298 0026 1846     		mov	r0, r3
 299 0028 FFF7FEFF 		bl	PWM1_WriteCompare1
 107:main.c        ****             snprintf(buffer,MAX_BUFFER,"%i\n\r",aux);
 300              		.loc 1 107 0
 301 002c FB88     		ldrh	r3, [r7, #6]
 302 002e 074A     		ldr	r2, .L19+4
 303 0030 6421     		movs	r1, #100
 304 0032 0748     		ldr	r0, .L19+8
 305 0034 FFF7FEFF 		bl	snprintf
 108:main.c        ****             PC_PutString(buffer);
 306              		.loc 1 108 0
 307 0038 0548     		ldr	r0, .L19+8
 308 003a FFF7FEFF 		bl	PC_PutString
 309              	.L17:
 310              	.LBE2:
 109:main.c        ****         }
 110:main.c        ****         
 111:main.c        ****         CyDelay(20);
 311              		.loc 1 111 0
 312 003e 1420     		movs	r0, #20
 313 0040 FFF7FEFF 		bl	CyDelay
 112:main.c        ****         
 113:main.c        ****         
 114:main.c        ****     }
 314              		.loc 1 114 0
 315 0044 E2E7     		b	.L18
 316              	.L20:
 317 0046 00BF     		.align	2
 318              	.L19:
 319 0048 00000000 		.word	bits_pot_value
 320 004c 00000000 		.word	.LC0
 321 0050 00000000 		.word	buffer
 322              		.cfi_endproc
 323              	.LFE67:
 324              		.size	main, .-main
 325              		.text
 326              	.Letext0:
 327              		.file 2 "c:\\program files (x86)\\cypress\\psoc creator\\4.4\\psoc creator\\import\\gnu\\arm\\5.4.
 328              		.file 3 "c:\\program files (x86)\\cypress\\psoc creator\\4.4\\psoc creator\\import\\gnu\\arm\\5.4.
 329              		.file 4 "Generated_Source\\PSoC5/cytypes.h"
 330              		.file 5 "Generated_Source\\PSoC5/core_cm3.h"