ARM GAS  C:\Users\elias\AppData\Local\Temp\ccHgsDKk.s 			page 1


   1              		.syntax unified
   2              		.cpu cortex-m3
   3              		.fpu softvfp
   4              		.eabi_attribute 20, 1
   5              		.eabi_attribute 21, 1
   6              		.eabi_attribute 23, 3
   7              		.eabi_attribute 24, 1
   8              		.eabi_attribute 25, 1
   9              		.eabi_attribute 26, 1
  10              		.eabi_attribute 30, 6
  11              		.eabi_attribute 34, 1
  12              		.eabi_attribute 18, 4
  13              		.thumb
  14              		.syntax unified
  15              		.file	"rgb_lcd.c"
  16              		.text
  17              	.Ltext0:
  18              		.cfi_sections	.debug_frame
  19              		.comm	_displayfunction,1,1
  20              		.comm	_displaycontrol,1,1
  21              		.comm	_displaymode,1,1
  22              		.comm	_numlines,1,1
  23              		.comm	_currline,1,1
  24              		.comm	rgb_chip_addr,1,1
  25              		.section	.text.LCD_begin,"ax",%progbits
  26              		.align	2
  27              		.global	LCD_begin
  28              		.thumb
  29              		.thumb_func
  30              		.type	LCD_begin, %function
  31              	LCD_begin:
  32              	.LFB63:
  33              		.file 1 "rgb_lcd.c"
   1:rgb_lcd.c     **** #include "rgb_lcd.h"
   2:rgb_lcd.c     **** #include "project.h"
   3:rgb_lcd.c     **** 
   4:rgb_lcd.c     **** uint8_t _displayfunction;
   5:rgb_lcd.c     **** uint8_t _displaycontrol;
   6:rgb_lcd.c     **** uint8_t _displaymode;
   7:rgb_lcd.c     **** uint8_t _numlines;
   8:rgb_lcd.c     **** uint8_t _currline;
   9:rgb_lcd.c     **** 
  10:rgb_lcd.c     **** uint8_t rgb_chip_addr; // Declaración global de rgb_chip_addr
  11:rgb_lcd.c     **** 
  12:rgb_lcd.c     **** // Inicialización del LCD
  13:rgb_lcd.c     **** void LCD_begin(uint8_t cols, uint8_t rows, uint8_t charsize) {
  34              		.loc 1 13 0
  35              		.cfi_startproc
  36              		@ args = 0, pretend = 0, frame = 8
  37              		@ frame_needed = 1, uses_anonymous_args = 0
  38 0000 80B5     		push	{r7, lr}
  39              		.cfi_def_cfa_offset 8
  40              		.cfi_offset 7, -8
  41              		.cfi_offset 14, -4
  42 0002 82B0     		sub	sp, sp, #8
  43              		.cfi_def_cfa_offset 16
  44 0004 00AF     		add	r7, sp, #0
ARM GAS  C:\Users\elias\AppData\Local\Temp\ccHgsDKk.s 			page 2


  45              		.cfi_def_cfa_register 7
  46 0006 0346     		mov	r3, r0
  47 0008 FB71     		strb	r3, [r7, #7]
  48 000a 0B46     		mov	r3, r1
  49 000c BB71     		strb	r3, [r7, #6]
  50 000e 1346     		mov	r3, r2
  51 0010 7B71     		strb	r3, [r7, #5]
  14:rgb_lcd.c     ****     if (rows > 1) {
  52              		.loc 1 14 0
  53 0012 BB79     		ldrb	r3, [r7, #6]	@ zero_extendqisi2
  54 0014 012B     		cmp	r3, #1
  55 0016 06D9     		bls	.L2
  15:rgb_lcd.c     ****         _displayfunction |= LCD_2LINE;
  56              		.loc 1 15 0
  57 0018 284B     		ldr	r3, .L3
  58 001a 1B78     		ldrb	r3, [r3]	@ zero_extendqisi2
  59 001c 43F00803 		orr	r3, r3, #8
  60 0020 DAB2     		uxtb	r2, r3
  61 0022 264B     		ldr	r3, .L3
  62 0024 1A70     		strb	r2, [r3]
  63              	.L2:
  16:rgb_lcd.c     ****     }
  17:rgb_lcd.c     ****     _numlines = rows;
  64              		.loc 1 17 0
  65 0026 264A     		ldr	r2, .L3+4
  66 0028 BB79     		ldrb	r3, [r7, #6]
  67 002a 1370     		strb	r3, [r2]
  18:rgb_lcd.c     ****     _currline = 0;
  68              		.loc 1 18 0
  69 002c 254B     		ldr	r3, .L3+8
  70 002e 0022     		movs	r2, #0
  71 0030 1A70     		strb	r2, [r3]
  19:rgb_lcd.c     **** 
  20:rgb_lcd.c     ****     I2C_LCD_Start();
  72              		.loc 1 20 0
  73 0032 FFF7FEFF 		bl	I2C_LCD_Start
  21:rgb_lcd.c     **** 
  22:rgb_lcd.c     ****     CyDelay(50);
  74              		.loc 1 22 0
  75 0036 3220     		movs	r0, #50
  76 0038 FFF7FEFF 		bl	CyDelay
  23:rgb_lcd.c     **** 
  24:rgb_lcd.c     ****     LCD_command(LCD_FUNCTIONSET | _displayfunction);
  77              		.loc 1 24 0
  78 003c 1F4B     		ldr	r3, .L3
  79 003e 1B78     		ldrb	r3, [r3]	@ zero_extendqisi2
  80 0040 43F02003 		orr	r3, r3, #32
  81 0044 DBB2     		uxtb	r3, r3
  82 0046 1846     		mov	r0, r3
  83 0048 FFF7FEFF 		bl	LCD_command
  25:rgb_lcd.c     ****     CyDelay(5);
  84              		.loc 1 25 0
  85 004c 0520     		movs	r0, #5
  86 004e FFF7FEFF 		bl	CyDelay
  26:rgb_lcd.c     ****     LCD_command(LCD_FUNCTIONSET | _displayfunction);
  87              		.loc 1 26 0
  88 0052 1A4B     		ldr	r3, .L3
ARM GAS  C:\Users\elias\AppData\Local\Temp\ccHgsDKk.s 			page 3


  89 0054 1B78     		ldrb	r3, [r3]	@ zero_extendqisi2
  90 0056 43F02003 		orr	r3, r3, #32
  91 005a DBB2     		uxtb	r3, r3
  92 005c 1846     		mov	r0, r3
  93 005e FFF7FEFF 		bl	LCD_command
  27:rgb_lcd.c     ****     CyDelay(1);
  94              		.loc 1 27 0
  95 0062 0120     		movs	r0, #1
  96 0064 FFF7FEFF 		bl	CyDelay
  28:rgb_lcd.c     ****     LCD_command(LCD_FUNCTIONSET | _displayfunction);
  97              		.loc 1 28 0
  98 0068 144B     		ldr	r3, .L3
  99 006a 1B78     		ldrb	r3, [r3]	@ zero_extendqisi2
 100 006c 43F02003 		orr	r3, r3, #32
 101 0070 DBB2     		uxtb	r3, r3
 102 0072 1846     		mov	r0, r3
 103 0074 FFF7FEFF 		bl	LCD_command
  29:rgb_lcd.c     **** 
  30:rgb_lcd.c     ****     _displaycontrol = LCD_DISPLAYON | LCD_CURSOROFF | LCD_BLINKOFF;
 104              		.loc 1 30 0
 105 0078 134B     		ldr	r3, .L3+12
 106 007a 0422     		movs	r2, #4
 107 007c 1A70     		strb	r2, [r3]
  31:rgb_lcd.c     ****     LCD_display();
 108              		.loc 1 31 0
 109 007e FFF7FEFF 		bl	LCD_display
  32:rgb_lcd.c     **** 
  33:rgb_lcd.c     ****     LCD_clear();
 110              		.loc 1 33 0
 111 0082 FFF7FEFF 		bl	LCD_clear
  34:rgb_lcd.c     ****     _displaymode = LCD_ENTRYLEFT | LCD_ENTRYSHIFTDECREMENT;
 112              		.loc 1 34 0
 113 0086 114B     		ldr	r3, .L3+16
 114 0088 0222     		movs	r2, #2
 115 008a 1A70     		strb	r2, [r3]
  35:rgb_lcd.c     ****     LCD_command(LCD_ENTRYMODESET | _displaymode);
 116              		.loc 1 35 0
 117 008c 0F4B     		ldr	r3, .L3+16
 118 008e 1B78     		ldrb	r3, [r3]	@ zero_extendqisi2
 119 0090 43F00403 		orr	r3, r3, #4
 120 0094 DBB2     		uxtb	r3, r3
 121 0096 1846     		mov	r0, r3
 122 0098 FFF7FEFF 		bl	LCD_command
  36:rgb_lcd.c     **** 
  37:rgb_lcd.c     ****     LCD_setReg(0x00, 0x00);
 123              		.loc 1 37 0
 124 009c 0021     		movs	r1, #0
 125 009e 0020     		movs	r0, #0
 126 00a0 FFF7FEFF 		bl	LCD_setReg
  38:rgb_lcd.c     ****     LCD_setReg(0x01, 0x00);
 127              		.loc 1 38 0
 128 00a4 0021     		movs	r1, #0
 129 00a6 0120     		movs	r0, #1
 130 00a8 FFF7FEFF 		bl	LCD_setReg
  39:rgb_lcd.c     ****     LCD_setReg(0x08, 0xAA);
 131              		.loc 1 39 0
 132 00ac AA21     		movs	r1, #170
ARM GAS  C:\Users\elias\AppData\Local\Temp\ccHgsDKk.s 			page 4


 133 00ae 0820     		movs	r0, #8
 134 00b0 FFF7FEFF 		bl	LCD_setReg
  40:rgb_lcd.c     **** }
 135              		.loc 1 40 0
 136 00b4 00BF     		nop
 137 00b6 0837     		adds	r7, r7, #8
 138              		.cfi_def_cfa_offset 8
 139 00b8 BD46     		mov	sp, r7
 140              		.cfi_def_cfa_register 13
 141              		@ sp needed
 142 00ba 80BD     		pop	{r7, pc}
 143              	.L4:
 144              		.align	2
 145              	.L3:
 146 00bc 00000000 		.word	_displayfunction
 147 00c0 00000000 		.word	_numlines
 148 00c4 00000000 		.word	_currline
 149 00c8 00000000 		.word	_displaycontrol
 150 00cc 00000000 		.word	_displaymode
 151              		.cfi_endproc
 152              	.LFE63:
 153              		.size	LCD_begin, .-LCD_begin
 154              		.section	.text.LCD_command,"ax",%progbits
 155              		.align	2
 156              		.global	LCD_command
 157              		.thumb
 158              		.thumb_func
 159              		.type	LCD_command, %function
 160              	LCD_command:
 161              	.LFB64:
  41:rgb_lcd.c     **** 
  42:rgb_lcd.c     **** // Enviar comando al LCD
  43:rgb_lcd.c     **** void LCD_command(uint8_t value) {
 162              		.loc 1 43 0
 163              		.cfi_startproc
 164              		@ args = 0, pretend = 0, frame = 16
 165              		@ frame_needed = 1, uses_anonymous_args = 0
 166 0000 80B5     		push	{r7, lr}
 167              		.cfi_def_cfa_offset 8
 168              		.cfi_offset 7, -8
 169              		.cfi_offset 14, -4
 170 0002 84B0     		sub	sp, sp, #16
 171              		.cfi_def_cfa_offset 24
 172 0004 00AF     		add	r7, sp, #0
 173              		.cfi_def_cfa_register 7
 174 0006 0346     		mov	r3, r0
 175 0008 FB71     		strb	r3, [r7, #7]
  44:rgb_lcd.c     ****     uint8_t data[2] = {0x80, value};
 176              		.loc 1 44 0
 177 000a 8023     		movs	r3, #128
 178 000c 3B73     		strb	r3, [r7, #12]
 179 000e FB79     		ldrb	r3, [r7, #7]
 180 0010 7B73     		strb	r3, [r7, #13]
  45:rgb_lcd.c     ****     i2c_send_byteS(data, 2);
 181              		.loc 1 45 0
 182 0012 07F10C03 		add	r3, r7, #12
 183 0016 0221     		movs	r1, #2
ARM GAS  C:\Users\elias\AppData\Local\Temp\ccHgsDKk.s 			page 5


 184 0018 1846     		mov	r0, r3
 185 001a FFF7FEFF 		bl	i2c_send_byteS
  46:rgb_lcd.c     **** }
 186              		.loc 1 46 0
 187 001e 00BF     		nop
 188 0020 1037     		adds	r7, r7, #16
 189              		.cfi_def_cfa_offset 8
 190 0022 BD46     		mov	sp, r7
 191              		.cfi_def_cfa_register 13
 192              		@ sp needed
 193 0024 80BD     		pop	{r7, pc}
 194              		.cfi_endproc
 195              	.LFE64:
 196              		.size	LCD_command, .-LCD_command
 197 0026 00BF     		.section	.text.LCD_write,"ax",%progbits
 198              		.align	2
 199              		.global	LCD_write
 200              		.thumb
 201              		.thumb_func
 202              		.type	LCD_write, %function
 203              	LCD_write:
 204              	.LFB65:
  47:rgb_lcd.c     **** 
  48:rgb_lcd.c     **** // Escribir un valor en el LCD
  49:rgb_lcd.c     **** void LCD_write(uint8_t value) {
 205              		.loc 1 49 0
 206              		.cfi_startproc
 207              		@ args = 0, pretend = 0, frame = 16
 208              		@ frame_needed = 1, uses_anonymous_args = 0
 209 0000 80B5     		push	{r7, lr}
 210              		.cfi_def_cfa_offset 8
 211              		.cfi_offset 7, -8
 212              		.cfi_offset 14, -4
 213 0002 84B0     		sub	sp, sp, #16
 214              		.cfi_def_cfa_offset 24
 215 0004 00AF     		add	r7, sp, #0
 216              		.cfi_def_cfa_register 7
 217 0006 0346     		mov	r3, r0
 218 0008 FB71     		strb	r3, [r7, #7]
  50:rgb_lcd.c     ****     uint8_t data[2] = {0x40, value};
 219              		.loc 1 50 0
 220 000a 4023     		movs	r3, #64
 221 000c 3B73     		strb	r3, [r7, #12]
 222 000e FB79     		ldrb	r3, [r7, #7]
 223 0010 7B73     		strb	r3, [r7, #13]
  51:rgb_lcd.c     ****     i2c_send_byteS(data, 2);
 224              		.loc 1 51 0
 225 0012 07F10C03 		add	r3, r7, #12
 226 0016 0221     		movs	r1, #2
 227 0018 1846     		mov	r0, r3
 228 001a FFF7FEFF 		bl	i2c_send_byteS
  52:rgb_lcd.c     **** }
 229              		.loc 1 52 0
 230 001e 00BF     		nop
 231 0020 1037     		adds	r7, r7, #16
 232              		.cfi_def_cfa_offset 8
 233 0022 BD46     		mov	sp, r7
ARM GAS  C:\Users\elias\AppData\Local\Temp\ccHgsDKk.s 			page 6


 234              		.cfi_def_cfa_register 13
 235              		@ sp needed
 236 0024 80BD     		pop	{r7, pc}
 237              		.cfi_endproc
 238              	.LFE65:
 239              		.size	LCD_write, .-LCD_write
 240 0026 00BF     		.section	.text.LCD_clear,"ax",%progbits
 241              		.align	2
 242              		.global	LCD_clear
 243              		.thumb
 244              		.thumb_func
 245              		.type	LCD_clear, %function
 246              	LCD_clear:
 247              	.LFB66:
  53:rgb_lcd.c     **** 
  54:rgb_lcd.c     **** // Limpiar la pantalla del LCD
  55:rgb_lcd.c     **** void LCD_clear() {
 248              		.loc 1 55 0
 249              		.cfi_startproc
 250              		@ args = 0, pretend = 0, frame = 0
 251              		@ frame_needed = 1, uses_anonymous_args = 0
 252 0000 80B5     		push	{r7, lr}
 253              		.cfi_def_cfa_offset 8
 254              		.cfi_offset 7, -8
 255              		.cfi_offset 14, -4
 256 0002 00AF     		add	r7, sp, #0
 257              		.cfi_def_cfa_register 7
  56:rgb_lcd.c     ****     LCD_command(LCD_CLEARDISPLAY);
 258              		.loc 1 56 0
 259 0004 0120     		movs	r0, #1
 260 0006 FFF7FEFF 		bl	LCD_command
  57:rgb_lcd.c     ****     CyDelay(2);
 261              		.loc 1 57 0
 262 000a 0220     		movs	r0, #2
 263 000c FFF7FEFF 		bl	CyDelay
  58:rgb_lcd.c     **** }
 264              		.loc 1 58 0
 265 0010 00BF     		nop
 266 0012 80BD     		pop	{r7, pc}
 267              		.cfi_endproc
 268              	.LFE66:
 269              		.size	LCD_clear, .-LCD_clear
 270              		.section	.text.LCD_setCursor,"ax",%progbits
 271              		.align	2
 272              		.global	LCD_setCursor
 273              		.thumb
 274              		.thumb_func
 275              		.type	LCD_setCursor, %function
 276              	LCD_setCursor:
 277              	.LFB67:
  59:rgb_lcd.c     **** 
  60:rgb_lcd.c     **** // Configurar el cursor
  61:rgb_lcd.c     **** void LCD_setCursor(uint8_t col, uint8_t row) {
 278              		.loc 1 61 0
 279              		.cfi_startproc
 280              		@ args = 0, pretend = 0, frame = 16
 281              		@ frame_needed = 1, uses_anonymous_args = 0
ARM GAS  C:\Users\elias\AppData\Local\Temp\ccHgsDKk.s 			page 7


 282 0000 80B5     		push	{r7, lr}
 283              		.cfi_def_cfa_offset 8
 284              		.cfi_offset 7, -8
 285              		.cfi_offset 14, -4
 286 0002 84B0     		sub	sp, sp, #16
 287              		.cfi_def_cfa_offset 24
 288 0004 00AF     		add	r7, sp, #0
 289              		.cfi_def_cfa_register 7
 290 0006 0346     		mov	r3, r0
 291 0008 0A46     		mov	r2, r1
 292 000a FB71     		strb	r3, [r7, #7]
 293 000c 1346     		mov	r3, r2
 294 000e BB71     		strb	r3, [r7, #6]
  62:rgb_lcd.c     ****     col = (row == 0 ? col | 0x80 : col | 0xc0);
 295              		.loc 1 62 0
 296 0010 BB79     		ldrb	r3, [r7, #6]	@ zero_extendqisi2
 297 0012 002B     		cmp	r3, #0
 298 0014 04D1     		bne	.L9
 299              		.loc 1 62 0 is_stmt 0 discriminator 1
 300 0016 FB79     		ldrb	r3, [r7, #7]
 301 0018 63F07F03 		orn	r3, r3, #127
 302 001c DBB2     		uxtb	r3, r3
 303 001e 03E0     		b	.L10
 304              	.L9:
 305              		.loc 1 62 0 discriminator 2
 306 0020 FB79     		ldrb	r3, [r7, #7]
 307 0022 63F03F03 		orn	r3, r3, #63
 308 0026 DBB2     		uxtb	r3, r3
 309              	.L10:
 310              		.loc 1 62 0 discriminator 4
 311 0028 FB71     		strb	r3, [r7, #7]
  63:rgb_lcd.c     ****     uint8_t data[2] = {0x80, col};
 312              		.loc 1 63 0 is_stmt 1 discriminator 4
 313 002a 8023     		movs	r3, #128
 314 002c 3B73     		strb	r3, [r7, #12]
 315 002e FB79     		ldrb	r3, [r7, #7]
 316 0030 7B73     		strb	r3, [r7, #13]
  64:rgb_lcd.c     ****     i2c_send_byteS(data, 2);
 317              		.loc 1 64 0 discriminator 4
 318 0032 07F10C03 		add	r3, r7, #12
 319 0036 0221     		movs	r1, #2
 320 0038 1846     		mov	r0, r3
 321 003a FFF7FEFF 		bl	i2c_send_byteS
  65:rgb_lcd.c     **** }
 322              		.loc 1 65 0 discriminator 4
 323 003e 00BF     		nop
 324 0040 1037     		adds	r7, r7, #16
 325              		.cfi_def_cfa_offset 8
 326 0042 BD46     		mov	sp, r7
 327              		.cfi_def_cfa_register 13
 328              		@ sp needed
 329 0044 80BD     		pop	{r7, pc}
 330              		.cfi_endproc
 331              	.LFE67:
 332              		.size	LCD_setCursor, .-LCD_setCursor
 333 0046 00BF     		.section	.text.LCD_display,"ax",%progbits
 334              		.align	2
ARM GAS  C:\Users\elias\AppData\Local\Temp\ccHgsDKk.s 			page 8


 335              		.global	LCD_display
 336              		.thumb
 337              		.thumb_func
 338              		.type	LCD_display, %function
 339              	LCD_display:
 340              	.LFB68:
  66:rgb_lcd.c     **** 
  67:rgb_lcd.c     **** // Activar el display
  68:rgb_lcd.c     **** void LCD_display() {
 341              		.loc 1 68 0
 342              		.cfi_startproc
 343              		@ args = 0, pretend = 0, frame = 0
 344              		@ frame_needed = 1, uses_anonymous_args = 0
 345 0000 80B5     		push	{r7, lr}
 346              		.cfi_def_cfa_offset 8
 347              		.cfi_offset 7, -8
 348              		.cfi_offset 14, -4
 349 0002 00AF     		add	r7, sp, #0
 350              		.cfi_def_cfa_register 7
  69:rgb_lcd.c     ****     _displaycontrol |= LCD_DISPLAYON;
 351              		.loc 1 69 0
 352 0004 084B     		ldr	r3, .L12
 353 0006 1B78     		ldrb	r3, [r3]	@ zero_extendqisi2
 354 0008 43F00403 		orr	r3, r3, #4
 355 000c DAB2     		uxtb	r2, r3
 356 000e 064B     		ldr	r3, .L12
 357 0010 1A70     		strb	r2, [r3]
  70:rgb_lcd.c     ****     LCD_command(LCD_DISPLAYCONTROL | _displaycontrol);
 358              		.loc 1 70 0
 359 0012 054B     		ldr	r3, .L12
 360 0014 1B78     		ldrb	r3, [r3]	@ zero_extendqisi2
 361 0016 43F00803 		orr	r3, r3, #8
 362 001a DBB2     		uxtb	r3, r3
 363 001c 1846     		mov	r0, r3
 364 001e FFF7FEFF 		bl	LCD_command
  71:rgb_lcd.c     **** }
 365              		.loc 1 71 0
 366 0022 00BF     		nop
 367 0024 80BD     		pop	{r7, pc}
 368              	.L13:
 369 0026 00BF     		.align	2
 370              	.L12:
 371 0028 00000000 		.word	_displaycontrol
 372              		.cfi_endproc
 373              	.LFE68:
 374              		.size	LCD_display, .-LCD_display
 375              		.section	.text.LCD_noDisplay,"ax",%progbits
 376              		.align	2
 377              		.global	LCD_noDisplay
 378              		.thumb
 379              		.thumb_func
 380              		.type	LCD_noDisplay, %function
 381              	LCD_noDisplay:
 382              	.LFB69:
  72:rgb_lcd.c     **** 
  73:rgb_lcd.c     **** // Apagar el display
  74:rgb_lcd.c     **** void LCD_noDisplay() {
ARM GAS  C:\Users\elias\AppData\Local\Temp\ccHgsDKk.s 			page 9


 383              		.loc 1 74 0
 384              		.cfi_startproc
 385              		@ args = 0, pretend = 0, frame = 0
 386              		@ frame_needed = 1, uses_anonymous_args = 0
 387 0000 80B5     		push	{r7, lr}
 388              		.cfi_def_cfa_offset 8
 389              		.cfi_offset 7, -8
 390              		.cfi_offset 14, -4
 391 0002 00AF     		add	r7, sp, #0
 392              		.cfi_def_cfa_register 7
  75:rgb_lcd.c     ****     _displaycontrol &= ~LCD_DISPLAYON;
 393              		.loc 1 75 0
 394 0004 084B     		ldr	r3, .L15
 395 0006 1B78     		ldrb	r3, [r3]	@ zero_extendqisi2
 396 0008 23F00403 		bic	r3, r3, #4
 397 000c DAB2     		uxtb	r2, r3
 398 000e 064B     		ldr	r3, .L15
 399 0010 1A70     		strb	r2, [r3]
  76:rgb_lcd.c     ****     LCD_command(LCD_DISPLAYCONTROL | _displaycontrol);
 400              		.loc 1 76 0
 401 0012 054B     		ldr	r3, .L15
 402 0014 1B78     		ldrb	r3, [r3]	@ zero_extendqisi2
 403 0016 43F00803 		orr	r3, r3, #8
 404 001a DBB2     		uxtb	r3, r3
 405 001c 1846     		mov	r0, r3
 406 001e FFF7FEFF 		bl	LCD_command
  77:rgb_lcd.c     **** }
 407              		.loc 1 77 0
 408 0022 00BF     		nop
 409 0024 80BD     		pop	{r7, pc}
 410              	.L16:
 411 0026 00BF     		.align	2
 412              	.L15:
 413 0028 00000000 		.word	_displaycontrol
 414              		.cfi_endproc
 415              	.LFE69:
 416              		.size	LCD_noDisplay, .-LCD_noDisplay
 417              		.section	.text.LCD_print,"ax",%progbits
 418              		.align	2
 419              		.global	LCD_print
 420              		.thumb
 421              		.thumb_func
 422              		.type	LCD_print, %function
 423              	LCD_print:
 424              	.LFB70:
  78:rgb_lcd.c     **** 
  79:rgb_lcd.c     **** // Imprimir texto en el LCD
  80:rgb_lcd.c     **** void LCD_print(char* data, uint8_t size) {
 425              		.loc 1 80 0
 426              		.cfi_startproc
 427              		@ args = 0, pretend = 0, frame = 16
 428              		@ frame_needed = 1, uses_anonymous_args = 0
 429 0000 80B5     		push	{r7, lr}
 430              		.cfi_def_cfa_offset 8
 431              		.cfi_offset 7, -8
 432              		.cfi_offset 14, -4
 433 0002 84B0     		sub	sp, sp, #16
ARM GAS  C:\Users\elias\AppData\Local\Temp\ccHgsDKk.s 			page 10


 434              		.cfi_def_cfa_offset 24
 435 0004 00AF     		add	r7, sp, #0
 436              		.cfi_def_cfa_register 7
 437 0006 7860     		str	r0, [r7, #4]
 438 0008 0B46     		mov	r3, r1
 439 000a FB70     		strb	r3, [r7, #3]
 440              	.LBB2:
  81:rgb_lcd.c     ****     for (uint8_t i = 0; i < size; i++) {
 441              		.loc 1 81 0
 442 000c 0023     		movs	r3, #0
 443 000e FB73     		strb	r3, [r7, #15]
 444 0010 09E0     		b	.L18
 445              	.L19:
  82:rgb_lcd.c     ****         LCD_write(data[i]);
 446              		.loc 1 82 0 discriminator 3
 447 0012 FB7B     		ldrb	r3, [r7, #15]	@ zero_extendqisi2
 448 0014 7A68     		ldr	r2, [r7, #4]
 449 0016 1344     		add	r3, r3, r2
 450 0018 1B78     		ldrb	r3, [r3]	@ zero_extendqisi2
 451 001a 1846     		mov	r0, r3
 452 001c FFF7FEFF 		bl	LCD_write
  81:rgb_lcd.c     ****     for (uint8_t i = 0; i < size; i++) {
 453              		.loc 1 81 0 discriminator 3
 454 0020 FB7B     		ldrb	r3, [r7, #15]	@ zero_extendqisi2
 455 0022 0133     		adds	r3, r3, #1
 456 0024 FB73     		strb	r3, [r7, #15]
 457              	.L18:
  81:rgb_lcd.c     ****     for (uint8_t i = 0; i < size; i++) {
 458              		.loc 1 81 0 is_stmt 0 discriminator 1
 459 0026 FA7B     		ldrb	r2, [r7, #15]	@ zero_extendqisi2
 460 0028 FB78     		ldrb	r3, [r7, #3]	@ zero_extendqisi2
 461 002a 9A42     		cmp	r2, r3
 462 002c F1D3     		bcc	.L19
 463              	.LBE2:
  83:rgb_lcd.c     ****     }
  84:rgb_lcd.c     **** }
 464              		.loc 1 84 0 is_stmt 1
 465 002e 00BF     		nop
 466 0030 1037     		adds	r7, r7, #16
 467              		.cfi_def_cfa_offset 8
 468 0032 BD46     		mov	sp, r7
 469              		.cfi_def_cfa_register 13
 470              		@ sp needed
 471 0034 80BD     		pop	{r7, pc}
 472              		.cfi_endproc
 473              	.LFE70:
 474              		.size	LCD_print, .-LCD_print
 475 0036 00BF     		.section	.text.LCD_setRGB,"ax",%progbits
 476              		.align	2
 477              		.global	LCD_setRGB
 478              		.thumb
 479              		.thumb_func
 480              		.type	LCD_setRGB, %function
 481              	LCD_setRGB:
 482              	.LFB71:
  85:rgb_lcd.c     **** 
  86:rgb_lcd.c     **** // Controlar el color del backlight RGB
ARM GAS  C:\Users\elias\AppData\Local\Temp\ccHgsDKk.s 			page 11


  87:rgb_lcd.c     **** void LCD_setRGB(unsigned char r, unsigned char g, unsigned char b) {
 483              		.loc 1 87 0
 484              		.cfi_startproc
 485              		@ args = 0, pretend = 0, frame = 8
 486              		@ frame_needed = 1, uses_anonymous_args = 0
 487 0000 80B5     		push	{r7, lr}
 488              		.cfi_def_cfa_offset 8
 489              		.cfi_offset 7, -8
 490              		.cfi_offset 14, -4
 491 0002 82B0     		sub	sp, sp, #8
 492              		.cfi_def_cfa_offset 16
 493 0004 00AF     		add	r7, sp, #0
 494              		.cfi_def_cfa_register 7
 495 0006 0346     		mov	r3, r0
 496 0008 FB71     		strb	r3, [r7, #7]
 497 000a 0B46     		mov	r3, r1
 498 000c BB71     		strb	r3, [r7, #6]
 499 000e 1346     		mov	r3, r2
 500 0010 7B71     		strb	r3, [r7, #5]
  88:rgb_lcd.c     ****     LCD_setReg(REG_RED, r);
 501              		.loc 1 88 0
 502 0012 FB79     		ldrb	r3, [r7, #7]	@ zero_extendqisi2
 503 0014 1946     		mov	r1, r3
 504 0016 0420     		movs	r0, #4
 505 0018 FFF7FEFF 		bl	LCD_setReg
  89:rgb_lcd.c     ****     LCD_setReg(REG_GREEN, g);
 506              		.loc 1 89 0
 507 001c BB79     		ldrb	r3, [r7, #6]	@ zero_extendqisi2
 508 001e 1946     		mov	r1, r3
 509 0020 0320     		movs	r0, #3
 510 0022 FFF7FEFF 		bl	LCD_setReg
  90:rgb_lcd.c     ****     LCD_setReg(REG_BLUE, b);
 511              		.loc 1 90 0
 512 0026 7B79     		ldrb	r3, [r7, #5]	@ zero_extendqisi2
 513 0028 1946     		mov	r1, r3
 514 002a 0220     		movs	r0, #2
 515 002c FFF7FEFF 		bl	LCD_setReg
  91:rgb_lcd.c     **** }
 516              		.loc 1 91 0
 517 0030 00BF     		nop
 518 0032 0837     		adds	r7, r7, #8
 519              		.cfi_def_cfa_offset 8
 520 0034 BD46     		mov	sp, r7
 521              		.cfi_def_cfa_register 13
 522              		@ sp needed
 523 0036 80BD     		pop	{r7, pc}
 524              		.cfi_endproc
 525              	.LFE71:
 526              		.size	LCD_setRGB, .-LCD_setRGB
 527              		.section	.text.LCD_setReg,"ax",%progbits
 528              		.align	2
 529              		.global	LCD_setReg
 530              		.thumb
 531              		.thumb_func
 532              		.type	LCD_setReg, %function
 533              	LCD_setReg:
 534              	.LFB72:
ARM GAS  C:\Users\elias\AppData\Local\Temp\ccHgsDKk.s 			page 12


  92:rgb_lcd.c     **** 
  93:rgb_lcd.c     **** // Enviar datos al backlight
  94:rgb_lcd.c     **** void LCD_setReg(unsigned char addr, unsigned char dta) {
 535              		.loc 1 94 0
 536              		.cfi_startproc
 537              		@ args = 0, pretend = 0, frame = 16
 538              		@ frame_needed = 1, uses_anonymous_args = 0
 539 0000 80B5     		push	{r7, lr}
 540              		.cfi_def_cfa_offset 8
 541              		.cfi_offset 7, -8
 542              		.cfi_offset 14, -4
 543 0002 84B0     		sub	sp, sp, #16
 544              		.cfi_def_cfa_offset 24
 545 0004 00AF     		add	r7, sp, #0
 546              		.cfi_def_cfa_register 7
 547 0006 0346     		mov	r3, r0
 548 0008 0A46     		mov	r2, r1
 549 000a FB71     		strb	r3, [r7, #7]
 550 000c 1346     		mov	r3, r2
 551 000e BB71     		strb	r3, [r7, #6]
  95:rgb_lcd.c     ****     uint8_t buffer[2] = {addr, dta};
 552              		.loc 1 95 0
 553 0010 FB79     		ldrb	r3, [r7, #7]
 554 0012 3B73     		strb	r3, [r7, #12]
 555 0014 BB79     		ldrb	r3, [r7, #6]
 556 0016 7B73     		strb	r3, [r7, #13]
  96:rgb_lcd.c     ****     I2C_LCD_MasterWriteBuf(I2C_RGB_ADDR >> 1, buffer, 2, I2C_LCD_MODE_COMPLETE_XFER);
 557              		.loc 1 96 0
 558 0018 07F10C01 		add	r1, r7, #12
 559 001c 0023     		movs	r3, #0
 560 001e 0222     		movs	r2, #2
 561 0020 6220     		movs	r0, #98
 562 0022 FFF7FEFF 		bl	I2C_LCD_MasterWriteBuf
  97:rgb_lcd.c     ****     while (I2C_LCD_MasterStatus() & I2C_LCD_MSTAT_XFER_INP);
 563              		.loc 1 97 0
 564 0026 00BF     		nop
 565              	.L22:
 566              		.loc 1 97 0 is_stmt 0 discriminator 1
 567 0028 FFF7FEFF 		bl	I2C_LCD_MasterStatus
 568 002c 0346     		mov	r3, r0
 569 002e 03F00403 		and	r3, r3, #4
 570 0032 002B     		cmp	r3, #0
 571 0034 F8D1     		bne	.L22
  98:rgb_lcd.c     **** }
 572              		.loc 1 98 0 is_stmt 1
 573 0036 00BF     		nop
 574 0038 1037     		adds	r7, r7, #16
 575              		.cfi_def_cfa_offset 8
 576 003a BD46     		mov	sp, r7
 577              		.cfi_def_cfa_register 13
 578              		@ sp needed
 579 003c 80BD     		pop	{r7, pc}
 580              		.cfi_endproc
 581              	.LFE72:
 582              		.size	LCD_setReg, .-LCD_setReg
 583 003e 00BF     		.section	.text.i2c_send_byteS,"ax",%progbits
 584              		.align	2
ARM GAS  C:\Users\elias\AppData\Local\Temp\ccHgsDKk.s 			page 13


 585              		.global	i2c_send_byteS
 586              		.thumb
 587              		.thumb_func
 588              		.type	i2c_send_byteS, %function
 589              	i2c_send_byteS:
 590              	.LFB73:
  99:rgb_lcd.c     **** 
 100:rgb_lcd.c     **** // Enviar datos a través de I2C
 101:rgb_lcd.c     **** void i2c_send_byteS(unsigned char* dta, unsigned char len) {
 591              		.loc 1 101 0
 592              		.cfi_startproc
 593              		@ args = 0, pretend = 0, frame = 8
 594              		@ frame_needed = 1, uses_anonymous_args = 0
 595 0000 80B5     		push	{r7, lr}
 596              		.cfi_def_cfa_offset 8
 597              		.cfi_offset 7, -8
 598              		.cfi_offset 14, -4
 599 0002 82B0     		sub	sp, sp, #8
 600              		.cfi_def_cfa_offset 16
 601 0004 00AF     		add	r7, sp, #0
 602              		.cfi_def_cfa_register 7
 603 0006 7860     		str	r0, [r7, #4]
 604 0008 0B46     		mov	r3, r1
 605 000a FB70     		strb	r3, [r7, #3]
 102:rgb_lcd.c     ****     I2C_LCD_MasterWriteBuf(I2C_LCD_ADDR >> 1, dta, len, I2C_LCD_MODE_COMPLETE_XFER);
 606              		.loc 1 102 0
 607 000c FA78     		ldrb	r2, [r7, #3]	@ zero_extendqisi2
 608 000e 0023     		movs	r3, #0
 609 0010 7968     		ldr	r1, [r7, #4]
 610 0012 3E20     		movs	r0, #62
 611 0014 FFF7FEFF 		bl	I2C_LCD_MasterWriteBuf
 103:rgb_lcd.c     ****     while (I2C_LCD_MasterStatus() & I2C_LCD_MSTAT_XFER_INP);
 612              		.loc 1 103 0
 613 0018 00BF     		nop
 614              	.L24:
 615              		.loc 1 103 0 is_stmt 0 discriminator 1
 616 001a FFF7FEFF 		bl	I2C_LCD_MasterStatus
 617 001e 0346     		mov	r3, r0
 618 0020 03F00403 		and	r3, r3, #4
 619 0024 002B     		cmp	r3, #0
 620 0026 F8D1     		bne	.L24
 104:rgb_lcd.c     **** }
 621              		.loc 1 104 0 is_stmt 1
 622 0028 00BF     		nop
 623 002a 0837     		adds	r7, r7, #8
 624              		.cfi_def_cfa_offset 8
 625 002c BD46     		mov	sp, r7
 626              		.cfi_def_cfa_register 13
 627              		@ sp needed
 628 002e 80BD     		pop	{r7, pc}
 629              		.cfi_endproc
 630              	.LFE73:
 631              		.size	i2c_send_byteS, .-i2c_send_byteS
 632              		.section	.text.LCD_createChar,"ax",%progbits
 633              		.align	2
 634              		.global	LCD_createChar
 635              		.thumb
ARM GAS  C:\Users\elias\AppData\Local\Temp\ccHgsDKk.s 			page 14


 636              		.thumb_func
 637              		.type	LCD_createChar, %function
 638              	LCD_createChar:
 639              	.LFB74:
 105:rgb_lcd.c     **** 
 106:rgb_lcd.c     **** void LCD_createChar(uint8_t location, uint8_t charmap[]) {
 640              		.loc 1 106 0
 641              		.cfi_startproc
 642              		@ args = 0, pretend = 0, frame = 24
 643              		@ frame_needed = 1, uses_anonymous_args = 0
 644 0000 80B5     		push	{r7, lr}
 645              		.cfi_def_cfa_offset 8
 646              		.cfi_offset 7, -8
 647              		.cfi_offset 14, -4
 648 0002 86B0     		sub	sp, sp, #24
 649              		.cfi_def_cfa_offset 32
 650 0004 00AF     		add	r7, sp, #0
 651              		.cfi_def_cfa_register 7
 652 0006 0346     		mov	r3, r0
 653 0008 3960     		str	r1, [r7]
 654 000a FB71     		strb	r3, [r7, #7]
 107:rgb_lcd.c     ****     location &= 0x7; // Solo tenemos 8 ubicaciones 0-7 en CGRAM
 655              		.loc 1 107 0
 656 000c FB79     		ldrb	r3, [r7, #7]
 657 000e 03F00703 		and	r3, r3, #7
 658 0012 FB71     		strb	r3, [r7, #7]
 108:rgb_lcd.c     ****     LCD_command(LCD_SETCGRAMADDR | (location << 3));
 659              		.loc 1 108 0
 660 0014 FB79     		ldrb	r3, [r7, #7]	@ zero_extendqisi2
 661 0016 DB00     		lsls	r3, r3, #3
 662 0018 5BB2     		sxtb	r3, r3
 663 001a 43F04003 		orr	r3, r3, #64
 664 001e 5BB2     		sxtb	r3, r3
 665 0020 DBB2     		uxtb	r3, r3
 666 0022 1846     		mov	r0, r3
 667 0024 FFF7FEFF 		bl	LCD_command
 109:rgb_lcd.c     **** 
 110:rgb_lcd.c     ****     uint8_t data[9];
 111:rgb_lcd.c     ****     data[0] = 0x40;  // Definir la dirección para los datos
 668              		.loc 1 111 0
 669 0028 4023     		movs	r3, #64
 670 002a 3B72     		strb	r3, [r7, #8]
 671              	.LBB3:
 112:rgb_lcd.c     ****     for (int i = 0; i < 8; i++) {
 672              		.loc 1 112 0
 673 002c 0023     		movs	r3, #0
 674 002e 7B61     		str	r3, [r7, #20]
 675 0030 0DE0     		b	.L26
 676              	.L27:
 113:rgb_lcd.c     ****         data[i + 1] = charmap[i];
 677              		.loc 1 113 0 discriminator 3
 678 0032 7B69     		ldr	r3, [r7, #20]
 679 0034 0133     		adds	r3, r3, #1
 680 0036 7A69     		ldr	r2, [r7, #20]
 681 0038 3968     		ldr	r1, [r7]
 682 003a 0A44     		add	r2, r2, r1
 683 003c 1278     		ldrb	r2, [r2]	@ zero_extendqisi2
ARM GAS  C:\Users\elias\AppData\Local\Temp\ccHgsDKk.s 			page 15


 684 003e 07F11801 		add	r1, r7, #24
 685 0042 0B44     		add	r3, r3, r1
 686 0044 03F8102C 		strb	r2, [r3, #-16]
 112:rgb_lcd.c     ****     for (int i = 0; i < 8; i++) {
 687              		.loc 1 112 0 discriminator 3
 688 0048 7B69     		ldr	r3, [r7, #20]
 689 004a 0133     		adds	r3, r3, #1
 690 004c 7B61     		str	r3, [r7, #20]
 691              	.L26:
 112:rgb_lcd.c     ****     for (int i = 0; i < 8; i++) {
 692              		.loc 1 112 0 is_stmt 0 discriminator 1
 693 004e 7B69     		ldr	r3, [r7, #20]
 694 0050 072B     		cmp	r3, #7
 695 0052 EEDD     		ble	.L27
 696              	.LBE3:
 114:rgb_lcd.c     ****     }
 115:rgb_lcd.c     ****     i2c_send_byteS(data, 9);
 697              		.loc 1 115 0 is_stmt 1
 698 0054 07F10803 		add	r3, r7, #8
 699 0058 0921     		movs	r1, #9
 700 005a 1846     		mov	r0, r3
 701 005c FFF7FEFF 		bl	i2c_send_byteS
 116:rgb_lcd.c     **** }
 702              		.loc 1 116 0
 703 0060 00BF     		nop
 704 0062 1837     		adds	r7, r7, #24
 705              		.cfi_def_cfa_offset 8
 706 0064 BD46     		mov	sp, r7
 707              		.cfi_def_cfa_register 13
 708              		@ sp needed
 709 0066 80BD     		pop	{r7, pc}
 710              		.cfi_endproc
 711              	.LFE74:
 712              		.size	LCD_createChar, .-LCD_createChar
 713              		.section	.text.LCD_autoscroll,"ax",%progbits
 714              		.align	2
 715              		.global	LCD_autoscroll
 716              		.thumb
 717              		.thumb_func
 718              		.type	LCD_autoscroll, %function
 719              	LCD_autoscroll:
 720              	.LFB75:
 117:rgb_lcd.c     **** 
 118:rgb_lcd.c     **** // Habilitar el autodesplazamiento (justificar a la derecha)
 119:rgb_lcd.c     **** void LCD_autoscroll(void) {
 721              		.loc 1 119 0
 722              		.cfi_startproc
 723              		@ args = 0, pretend = 0, frame = 0
 724              		@ frame_needed = 1, uses_anonymous_args = 0
 725 0000 80B5     		push	{r7, lr}
 726              		.cfi_def_cfa_offset 8
 727              		.cfi_offset 7, -8
 728              		.cfi_offset 14, -4
 729 0002 00AF     		add	r7, sp, #0
 730              		.cfi_def_cfa_register 7
 120:rgb_lcd.c     ****     _displaymode |= LCD_ENTRYSHIFTINCREMENT;
 731              		.loc 1 120 0
ARM GAS  C:\Users\elias\AppData\Local\Temp\ccHgsDKk.s 			page 16


 732 0004 084B     		ldr	r3, .L29
 733 0006 1B78     		ldrb	r3, [r3]	@ zero_extendqisi2
 734 0008 43F00103 		orr	r3, r3, #1
 735 000c DAB2     		uxtb	r2, r3
 736 000e 064B     		ldr	r3, .L29
 737 0010 1A70     		strb	r2, [r3]
 121:rgb_lcd.c     ****     LCD_command(LCD_ENTRYMODESET | _displaymode);
 738              		.loc 1 121 0
 739 0012 054B     		ldr	r3, .L29
 740 0014 1B78     		ldrb	r3, [r3]	@ zero_extendqisi2
 741 0016 43F00403 		orr	r3, r3, #4
 742 001a DBB2     		uxtb	r3, r3
 743 001c 1846     		mov	r0, r3
 744 001e FFF7FEFF 		bl	LCD_command
 122:rgb_lcd.c     **** }
 745              		.loc 1 122 0
 746 0022 00BF     		nop
 747 0024 80BD     		pop	{r7, pc}
 748              	.L30:
 749 0026 00BF     		.align	2
 750              	.L29:
 751 0028 00000000 		.word	_displaymode
 752              		.cfi_endproc
 753              	.LFE75:
 754              		.size	LCD_autoscroll, .-LCD_autoscroll
 755              		.section	.text.LCD_noAutoscroll,"ax",%progbits
 756              		.align	2
 757              		.global	LCD_noAutoscroll
 758              		.thumb
 759              		.thumb_func
 760              		.type	LCD_noAutoscroll, %function
 761              	LCD_noAutoscroll:
 762              	.LFB76:
 123:rgb_lcd.c     **** 
 124:rgb_lcd.c     **** // Deshabilitar el autodesplazamiento (justificar a la izquierda)
 125:rgb_lcd.c     **** void LCD_noAutoscroll(void) {
 763              		.loc 1 125 0
 764              		.cfi_startproc
 765              		@ args = 0, pretend = 0, frame = 0
 766              		@ frame_needed = 1, uses_anonymous_args = 0
 767 0000 80B5     		push	{r7, lr}
 768              		.cfi_def_cfa_offset 8
 769              		.cfi_offset 7, -8
 770              		.cfi_offset 14, -4
 771 0002 00AF     		add	r7, sp, #0
 772              		.cfi_def_cfa_register 7
 126:rgb_lcd.c     ****     _displaymode &= ~LCD_ENTRYSHIFTINCREMENT;
 773              		.loc 1 126 0
 774 0004 084B     		ldr	r3, .L32
 775 0006 1B78     		ldrb	r3, [r3]	@ zero_extendqisi2
 776 0008 23F00103 		bic	r3, r3, #1
 777 000c DAB2     		uxtb	r2, r3
 778 000e 064B     		ldr	r3, .L32
 779 0010 1A70     		strb	r2, [r3]
 127:rgb_lcd.c     ****     LCD_command(LCD_ENTRYMODESET | _displaymode);
 780              		.loc 1 127 0
 781 0012 054B     		ldr	r3, .L32
ARM GAS  C:\Users\elias\AppData\Local\Temp\ccHgsDKk.s 			page 17


 782 0014 1B78     		ldrb	r3, [r3]	@ zero_extendqisi2
 783 0016 43F00403 		orr	r3, r3, #4
 784 001a DBB2     		uxtb	r3, r3
 785 001c 1846     		mov	r0, r3
 786 001e FFF7FEFF 		bl	LCD_command
 128:rgb_lcd.c     **** }
 787              		.loc 1 128 0
 788 0022 00BF     		nop
 789 0024 80BD     		pop	{r7, pc}
 790              	.L33:
 791 0026 00BF     		.align	2
 792              	.L32:
 793 0028 00000000 		.word	_displaymode
 794              		.cfi_endproc
 795              	.LFE76:
 796              		.size	LCD_noAutoscroll, .-LCD_noAutoscroll
 797              		.section	.text.LCD_scrollDisplayLeft,"ax",%progbits
 798              		.align	2
 799              		.global	LCD_scrollDisplayLeft
 800              		.thumb
 801              		.thumb_func
 802              		.type	LCD_scrollDisplayLeft, %function
 803              	LCD_scrollDisplayLeft:
 804              	.LFB77:
 129:rgb_lcd.c     **** 
 130:rgb_lcd.c     **** 
 131:rgb_lcd.c     **** // Desplazar el contenido de la pantalla a la izquierda sin cambiar la RAM
 132:rgb_lcd.c     **** void LCD_scrollDisplayLeft(void) {
 805              		.loc 1 132 0
 806              		.cfi_startproc
 807              		@ args = 0, pretend = 0, frame = 0
 808              		@ frame_needed = 1, uses_anonymous_args = 0
 809 0000 80B5     		push	{r7, lr}
 810              		.cfi_def_cfa_offset 8
 811              		.cfi_offset 7, -8
 812              		.cfi_offset 14, -4
 813 0002 00AF     		add	r7, sp, #0
 814              		.cfi_def_cfa_register 7
 133:rgb_lcd.c     ****     LCD_command(LCD_CURSORSHIFT | LCD_DISPLAYMOVE | LCD_MOVELEFT);
 815              		.loc 1 133 0
 816 0004 1820     		movs	r0, #24
 817 0006 FFF7FEFF 		bl	LCD_command
 134:rgb_lcd.c     **** }
 818              		.loc 1 134 0
 819 000a 00BF     		nop
 820 000c 80BD     		pop	{r7, pc}
 821              		.cfi_endproc
 822              	.LFE77:
 823              		.size	LCD_scrollDisplayLeft, .-LCD_scrollDisplayLeft
 824 000e 00BF     		.section	.text.LCD_scrollDisplayRight,"ax",%progbits
 825              		.align	2
 826              		.global	LCD_scrollDisplayRight
 827              		.thumb
 828              		.thumb_func
 829              		.type	LCD_scrollDisplayRight, %function
 830              	LCD_scrollDisplayRight:
 831              	.LFB78:
ARM GAS  C:\Users\elias\AppData\Local\Temp\ccHgsDKk.s 			page 18


 135:rgb_lcd.c     **** 
 136:rgb_lcd.c     **** // Desplazar el contenido de la pantalla a la derecha sin cambiar la RAM
 137:rgb_lcd.c     **** void LCD_scrollDisplayRight(void) {
 832              		.loc 1 137 0
 833              		.cfi_startproc
 834              		@ args = 0, pretend = 0, frame = 0
 835              		@ frame_needed = 1, uses_anonymous_args = 0
 836 0000 80B5     		push	{r7, lr}
 837              		.cfi_def_cfa_offset 8
 838              		.cfi_offset 7, -8
 839              		.cfi_offset 14, -4
 840 0002 00AF     		add	r7, sp, #0
 841              		.cfi_def_cfa_register 7
 138:rgb_lcd.c     ****     LCD_command(LCD_CURSORSHIFT | LCD_DISPLAYMOVE | LCD_MOVERIGHT);
 842              		.loc 1 138 0
 843 0004 1C20     		movs	r0, #28
 844 0006 FFF7FEFF 		bl	LCD_command
 139:rgb_lcd.c     **** }
 845              		.loc 1 139 0
 846 000a 00BF     		nop
 847 000c 80BD     		pop	{r7, pc}
 848              		.cfi_endproc
 849              	.LFE78:
 850              		.size	LCD_scrollDisplayRight, .-LCD_scrollDisplayRight
 851 000e 00BF     		.section	.text.LCD_leftToRight,"ax",%progbits
 852              		.align	2
 853              		.global	LCD_leftToRight
 854              		.thumb
 855              		.thumb_func
 856              		.type	LCD_leftToRight, %function
 857              	LCD_leftToRight:
 858              	.LFB79:
 140:rgb_lcd.c     **** 
 141:rgb_lcd.c     **** // Configurar la dirección del texto de izquierda a derecha
 142:rgb_lcd.c     **** void LCD_leftToRight(void) {
 859              		.loc 1 142 0
 860              		.cfi_startproc
 861              		@ args = 0, pretend = 0, frame = 0
 862              		@ frame_needed = 1, uses_anonymous_args = 0
 863 0000 80B5     		push	{r7, lr}
 864              		.cfi_def_cfa_offset 8
 865              		.cfi_offset 7, -8
 866              		.cfi_offset 14, -4
 867 0002 00AF     		add	r7, sp, #0
 868              		.cfi_def_cfa_register 7
 143:rgb_lcd.c     ****     _displaymode |= LCD_ENTRYLEFT;
 869              		.loc 1 143 0
 870 0004 084B     		ldr	r3, .L37
 871 0006 1B78     		ldrb	r3, [r3]	@ zero_extendqisi2
 872 0008 43F00203 		orr	r3, r3, #2
 873 000c DAB2     		uxtb	r2, r3
 874 000e 064B     		ldr	r3, .L37
 875 0010 1A70     		strb	r2, [r3]
 144:rgb_lcd.c     ****     LCD_command(LCD_ENTRYMODESET | _displaymode);
 876              		.loc 1 144 0
 877 0012 054B     		ldr	r3, .L37
 878 0014 1B78     		ldrb	r3, [r3]	@ zero_extendqisi2
ARM GAS  C:\Users\elias\AppData\Local\Temp\ccHgsDKk.s 			page 19


 879 0016 43F00403 		orr	r3, r3, #4
 880 001a DBB2     		uxtb	r3, r3
 881 001c 1846     		mov	r0, r3
 882 001e FFF7FEFF 		bl	LCD_command
 145:rgb_lcd.c     **** }
 883              		.loc 1 145 0
 884 0022 00BF     		nop
 885 0024 80BD     		pop	{r7, pc}
 886              	.L38:
 887 0026 00BF     		.align	2
 888              	.L37:
 889 0028 00000000 		.word	_displaymode
 890              		.cfi_endproc
 891              	.LFE79:
 892              		.size	LCD_leftToRight, .-LCD_leftToRight
 893              		.section	.text.LCD_rightToLeft,"ax",%progbits
 894              		.align	2
 895              		.global	LCD_rightToLeft
 896              		.thumb
 897              		.thumb_func
 898              		.type	LCD_rightToLeft, %function
 899              	LCD_rightToLeft:
 900              	.LFB80:
 146:rgb_lcd.c     **** 
 147:rgb_lcd.c     **** // Configurar la dirección del texto de derecha a izquierda
 148:rgb_lcd.c     **** void LCD_rightToLeft(void) {
 901              		.loc 1 148 0
 902              		.cfi_startproc
 903              		@ args = 0, pretend = 0, frame = 0
 904              		@ frame_needed = 1, uses_anonymous_args = 0
 905 0000 80B5     		push	{r7, lr}
 906              		.cfi_def_cfa_offset 8
 907              		.cfi_offset 7, -8
 908              		.cfi_offset 14, -4
 909 0002 00AF     		add	r7, sp, #0
 910              		.cfi_def_cfa_register 7
 149:rgb_lcd.c     ****     _displaymode &= ~LCD_ENTRYLEFT;
 911              		.loc 1 149 0
 912 0004 084B     		ldr	r3, .L40
 913 0006 1B78     		ldrb	r3, [r3]	@ zero_extendqisi2
 914 0008 23F00203 		bic	r3, r3, #2
 915 000c DAB2     		uxtb	r2, r3
 916 000e 064B     		ldr	r3, .L40
 917 0010 1A70     		strb	r2, [r3]
 150:rgb_lcd.c     ****     LCD_command(LCD_ENTRYMODESET | _displaymode);
 918              		.loc 1 150 0
 919 0012 054B     		ldr	r3, .L40
 920 0014 1B78     		ldrb	r3, [r3]	@ zero_extendqisi2
 921 0016 43F00403 		orr	r3, r3, #4
 922 001a DBB2     		uxtb	r3, r3
 923 001c 1846     		mov	r0, r3
 924 001e FFF7FEFF 		bl	LCD_command
 151:rgb_lcd.c     **** }
 925              		.loc 1 151 0
 926 0022 00BF     		nop
 927 0024 80BD     		pop	{r7, pc}
 928              	.L41:
ARM GAS  C:\Users\elias\AppData\Local\Temp\ccHgsDKk.s 			page 20


 929 0026 00BF     		.align	2
 930              	.L40:
 931 0028 00000000 		.word	_displaymode
 932              		.cfi_endproc
 933              	.LFE80:
 934              		.size	LCD_rightToLeft, .-LCD_rightToLeft
 935              		.section	.text.LCD_blinkLED,"ax",%progbits
 936              		.align	2
 937              		.global	LCD_blinkLED
 938              		.thumb
 939              		.thumb_func
 940              		.type	LCD_blinkLED, %function
 941              	LCD_blinkLED:
 942              	.LFB81:
 152:rgb_lcd.c     **** 
 153:rgb_lcd.c     **** void LCD_blinkLED(void) {
 943              		.loc 1 153 0
 944              		.cfi_startproc
 945              		@ args = 0, pretend = 0, frame = 0
 946              		@ frame_needed = 1, uses_anonymous_args = 0
 947 0000 80B5     		push	{r7, lr}
 948              		.cfi_def_cfa_offset 8
 949              		.cfi_offset 7, -8
 950              		.cfi_offset 14, -4
 951 0002 00AF     		add	r7, sp, #0
 952              		.cfi_def_cfa_register 7
 154:rgb_lcd.c     ****     if (rgb_chip_addr == RGB_ADDRESS_V5) {
 953              		.loc 1 154 0
 954 0004 0D4B     		ldr	r3, .L46
 955 0006 1B78     		ldrb	r3, [r3]	@ zero_extendqisi2
 956 0008 302B     		cmp	r3, #48
 957 000a 0CD1     		bne	.L43
 155:rgb_lcd.c     ****         // Adjuntar todos los LED a pwm1
 156:rgb_lcd.c     ****         // El período de parpadeo en segundos = (<reg 1> + 2) * 0.128s
 157:rgb_lcd.c     ****         // Relación encendido/apagado del pwm1 = <reg 2> / 256
 158:rgb_lcd.c     ****         LCD_setReg(0x04, 0x2a);  // 0010 1010
 958              		.loc 1 158 0
 959 000c 2A21     		movs	r1, #42
 960 000e 0420     		movs	r0, #4
 961 0010 FFF7FEFF 		bl	LCD_setReg
 159:rgb_lcd.c     ****         LCD_setReg(0x01, 0x06);  // parpadeo cada segundo
 962              		.loc 1 159 0
 963 0014 0621     		movs	r1, #6
 964 0016 0120     		movs	r0, #1
 965 0018 FFF7FEFF 		bl	LCD_setReg
 160:rgb_lcd.c     ****         LCD_setReg(0x02, 0x7f);  // encendido la mitad del tiempo, apagado la otra mitad
 966              		.loc 1 160 0
 967 001c 7F21     		movs	r1, #127
 968 001e 0220     		movs	r0, #2
 969 0020 FFF7FEFF 		bl	LCD_setReg
 161:rgb_lcd.c     ****     } else {
 162:rgb_lcd.c     ****         // El período de parpadeo en segundos = (<reg 7> + 1) / 24
 163:rgb_lcd.c     ****         // Relación encendido/apagado = <reg 6> / 256
 164:rgb_lcd.c     ****         LCD_setReg(0x07, 0x17);  // parpadeo cada segundo
 165:rgb_lcd.c     ****         LCD_setReg(0x06, 0x7f);  // encendido la mitad del tiempo, apagado la otra mitad
 166:rgb_lcd.c     ****     }
 167:rgb_lcd.c     **** }
ARM GAS  C:\Users\elias\AppData\Local\Temp\ccHgsDKk.s 			page 21


 970              		.loc 1 167 0
 971 0024 07E0     		b	.L45
 972              	.L43:
 164:rgb_lcd.c     ****         LCD_setReg(0x06, 0x7f);  // encendido la mitad del tiempo, apagado la otra mitad
 973              		.loc 1 164 0
 974 0026 1721     		movs	r1, #23
 975 0028 0720     		movs	r0, #7
 976 002a FFF7FEFF 		bl	LCD_setReg
 165:rgb_lcd.c     ****     }
 977              		.loc 1 165 0
 978 002e 7F21     		movs	r1, #127
 979 0030 0620     		movs	r0, #6
 980 0032 FFF7FEFF 		bl	LCD_setReg
 981              	.L45:
 982              		.loc 1 167 0
 983 0036 00BF     		nop
 984 0038 80BD     		pop	{r7, pc}
 985              	.L47:
 986 003a 00BF     		.align	2
 987              	.L46:
 988 003c 00000000 		.word	rgb_chip_addr
 989              		.cfi_endproc
 990              	.LFE81:
 991              		.size	LCD_blinkLED, .-LCD_blinkLED
 992              		.section	.text.LCD_noBlinkLED,"ax",%progbits
 993              		.align	2
 994              		.global	LCD_noBlinkLED
 995              		.thumb
 996              		.thumb_func
 997              		.type	LCD_noBlinkLED, %function
 998              	LCD_noBlinkLED:
 999              	.LFB82:
 168:rgb_lcd.c     **** 
 169:rgb_lcd.c     **** // Desactivar el parpadeo del LED de la retroiluminación
 170:rgb_lcd.c     **** void LCD_noBlinkLED(void) {
 1000              		.loc 1 170 0
 1001              		.cfi_startproc
 1002              		@ args = 0, pretend = 0, frame = 0
 1003              		@ frame_needed = 1, uses_anonymous_args = 0
 1004 0000 80B5     		push	{r7, lr}
 1005              		.cfi_def_cfa_offset 8
 1006              		.cfi_offset 7, -8
 1007              		.cfi_offset 14, -4
 1008 0002 00AF     		add	r7, sp, #0
 1009              		.cfi_def_cfa_register 7
 171:rgb_lcd.c     ****     if (rgb_chip_addr == RGB_ADDRESS_V5) {
 1010              		.loc 1 171 0
 1011 0004 094B     		ldr	r3, .L52
 1012 0006 1B78     		ldrb	r3, [r3]	@ zero_extendqisi2
 1013 0008 302B     		cmp	r3, #48
 1014 000a 04D1     		bne	.L49
 172:rgb_lcd.c     ****         LCD_setReg(0x04, 0x15);  // 0001 0101
 1015              		.loc 1 172 0
 1016 000c 1521     		movs	r1, #21
 1017 000e 0420     		movs	r0, #4
 1018 0010 FFF7FEFF 		bl	LCD_setReg
 173:rgb_lcd.c     ****     } else {
ARM GAS  C:\Users\elias\AppData\Local\Temp\ccHgsDKk.s 			page 22


 174:rgb_lcd.c     ****         LCD_setReg(0x07, 0x00);  // Desactivar el parpadeo
 175:rgb_lcd.c     ****         LCD_setReg(0x06, 0xff);  // Encendido total
 176:rgb_lcd.c     ****     }
 177:rgb_lcd.c     **** }
 1019              		.loc 1 177 0
 1020 0014 07E0     		b	.L51
 1021              	.L49:
 174:rgb_lcd.c     ****         LCD_setReg(0x06, 0xff);  // Encendido total
 1022              		.loc 1 174 0
 1023 0016 0021     		movs	r1, #0
 1024 0018 0720     		movs	r0, #7
 1025 001a FFF7FEFF 		bl	LCD_setReg
 175:rgb_lcd.c     ****     }
 1026              		.loc 1 175 0
 1027 001e FF21     		movs	r1, #255
 1028 0020 0620     		movs	r0, #6
 1029 0022 FFF7FEFF 		bl	LCD_setReg
 1030              	.L51:
 1031              		.loc 1 177 0
 1032 0026 00BF     		nop
 1033 0028 80BD     		pop	{r7, pc}
 1034              	.L53:
 1035 002a 00BF     		.align	2
 1036              	.L52:
 1037 002c 00000000 		.word	rgb_chip_addr
 1038              		.cfi_endproc
 1039              	.LFE82:
 1040              		.size	LCD_noBlinkLED, .-LCD_noBlinkLED
 1041              		.section	.text.LCD_noCursor,"ax",%progbits
 1042              		.align	2
 1043              		.global	LCD_noCursor
 1044              		.thumb
 1045              		.thumb_func
 1046              		.type	LCD_noCursor, %function
 1047              	LCD_noCursor:
 1048              	.LFB83:
 178:rgb_lcd.c     **** // Ocultar el cursor
 179:rgb_lcd.c     **** void LCD_noCursor(void) {
 1049              		.loc 1 179 0
 1050              		.cfi_startproc
 1051              		@ args = 0, pretend = 0, frame = 0
 1052              		@ frame_needed = 1, uses_anonymous_args = 0
 1053 0000 80B5     		push	{r7, lr}
 1054              		.cfi_def_cfa_offset 8
 1055              		.cfi_offset 7, -8
 1056              		.cfi_offset 14, -4
 1057 0002 00AF     		add	r7, sp, #0
 1058              		.cfi_def_cfa_register 7
 180:rgb_lcd.c     ****     _displaycontrol &= ~LCD_CURSORON;
 1059              		.loc 1 180 0
 1060 0004 084B     		ldr	r3, .L55
 1061 0006 1B78     		ldrb	r3, [r3]	@ zero_extendqisi2
 1062 0008 23F00203 		bic	r3, r3, #2
 1063 000c DAB2     		uxtb	r2, r3
 1064 000e 064B     		ldr	r3, .L55
 1065 0010 1A70     		strb	r2, [r3]
 181:rgb_lcd.c     ****     LCD_command(LCD_DISPLAYCONTROL | _displaycontrol);
ARM GAS  C:\Users\elias\AppData\Local\Temp\ccHgsDKk.s 			page 23


 1066              		.loc 1 181 0
 1067 0012 054B     		ldr	r3, .L55
 1068 0014 1B78     		ldrb	r3, [r3]	@ zero_extendqisi2
 1069 0016 43F00803 		orr	r3, r3, #8
 1070 001a DBB2     		uxtb	r3, r3
 1071 001c 1846     		mov	r0, r3
 1072 001e FFF7FEFF 		bl	LCD_command
 182:rgb_lcd.c     **** }
 1073              		.loc 1 182 0
 1074 0022 00BF     		nop
 1075 0024 80BD     		pop	{r7, pc}
 1076              	.L56:
 1077 0026 00BF     		.align	2
 1078              	.L55:
 1079 0028 00000000 		.word	_displaycontrol
 1080              		.cfi_endproc
 1081              	.LFE83:
 1082              		.size	LCD_noCursor, .-LCD_noCursor
 1083              		.section	.text.LCD_cursor,"ax",%progbits
 1084              		.align	2
 1085              		.global	LCD_cursor
 1086              		.thumb
 1087              		.thumb_func
 1088              		.type	LCD_cursor, %function
 1089              	LCD_cursor:
 1090              	.LFB84:
 183:rgb_lcd.c     **** 
 184:rgb_lcd.c     **** // Mostrar el cursor
 185:rgb_lcd.c     **** void LCD_cursor(void) {
 1091              		.loc 1 185 0
 1092              		.cfi_startproc
 1093              		@ args = 0, pretend = 0, frame = 0
 1094              		@ frame_needed = 1, uses_anonymous_args = 0
 1095 0000 80B5     		push	{r7, lr}
 1096              		.cfi_def_cfa_offset 8
 1097              		.cfi_offset 7, -8
 1098              		.cfi_offset 14, -4
 1099 0002 00AF     		add	r7, sp, #0
 1100              		.cfi_def_cfa_register 7
 186:rgb_lcd.c     ****     _displaycontrol |= LCD_CURSORON;
 1101              		.loc 1 186 0
 1102 0004 084B     		ldr	r3, .L58
 1103 0006 1B78     		ldrb	r3, [r3]	@ zero_extendqisi2
 1104 0008 43F00203 		orr	r3, r3, #2
 1105 000c DAB2     		uxtb	r2, r3
 1106 000e 064B     		ldr	r3, .L58
 1107 0010 1A70     		strb	r2, [r3]
 187:rgb_lcd.c     ****     LCD_command(LCD_DISPLAYCONTROL | _displaycontrol);
 1108              		.loc 1 187 0
 1109 0012 054B     		ldr	r3, .L58
 1110 0014 1B78     		ldrb	r3, [r3]	@ zero_extendqisi2
 1111 0016 43F00803 		orr	r3, r3, #8
 1112 001a DBB2     		uxtb	r3, r3
 1113 001c 1846     		mov	r0, r3
 1114 001e FFF7FEFF 		bl	LCD_command
 188:rgb_lcd.c     **** }
 1115              		.loc 1 188 0
ARM GAS  C:\Users\elias\AppData\Local\Temp\ccHgsDKk.s 			page 24


 1116 0022 00BF     		nop
 1117 0024 80BD     		pop	{r7, pc}
 1118              	.L59:
 1119 0026 00BF     		.align	2
 1120              	.L58:
 1121 0028 00000000 		.word	_displaycontrol
 1122              		.cfi_endproc
 1123              	.LFE84:
 1124              		.size	LCD_cursor, .-LCD_cursor
 1125              		.section	.text.LCD_noBlink,"ax",%progbits
 1126              		.align	2
 1127              		.global	LCD_noBlink
 1128              		.thumb
 1129              		.thumb_func
 1130              		.type	LCD_noBlink, %function
 1131              	LCD_noBlink:
 1132              	.LFB85:
 189:rgb_lcd.c     **** 
 190:rgb_lcd.c     **** // Apagar el parpadeo del cursor
 191:rgb_lcd.c     **** void LCD_noBlink(void) {
 1133              		.loc 1 191 0
 1134              		.cfi_startproc
 1135              		@ args = 0, pretend = 0, frame = 0
 1136              		@ frame_needed = 1, uses_anonymous_args = 0
 1137 0000 80B5     		push	{r7, lr}
 1138              		.cfi_def_cfa_offset 8
 1139              		.cfi_offset 7, -8
 1140              		.cfi_offset 14, -4
 1141 0002 00AF     		add	r7, sp, #0
 1142              		.cfi_def_cfa_register 7
 192:rgb_lcd.c     ****     _displaycontrol &= ~LCD_BLINKON;
 1143              		.loc 1 192 0
 1144 0004 084B     		ldr	r3, .L61
 1145 0006 1B78     		ldrb	r3, [r3]	@ zero_extendqisi2
 1146 0008 23F00103 		bic	r3, r3, #1
 1147 000c DAB2     		uxtb	r2, r3
 1148 000e 064B     		ldr	r3, .L61
 1149 0010 1A70     		strb	r2, [r3]
 193:rgb_lcd.c     ****     LCD_command(LCD_DISPLAYCONTROL | _displaycontrol);
 1150              		.loc 1 193 0
 1151 0012 054B     		ldr	r3, .L61
 1152 0014 1B78     		ldrb	r3, [r3]	@ zero_extendqisi2
 1153 0016 43F00803 		orr	r3, r3, #8
 1154 001a DBB2     		uxtb	r3, r3
 1155 001c 1846     		mov	r0, r3
 1156 001e FFF7FEFF 		bl	LCD_command
 194:rgb_lcd.c     **** }
 1157              		.loc 1 194 0
 1158 0022 00BF     		nop
 1159 0024 80BD     		pop	{r7, pc}
 1160              	.L62:
 1161 0026 00BF     		.align	2
 1162              	.L61:
 1163 0028 00000000 		.word	_displaycontrol
 1164              		.cfi_endproc
 1165              	.LFE85:
 1166              		.size	LCD_noBlink, .-LCD_noBlink
ARM GAS  C:\Users\elias\AppData\Local\Temp\ccHgsDKk.s 			page 25


 1167              		.section	.text.LCD_blink,"ax",%progbits
 1168              		.align	2
 1169              		.global	LCD_blink
 1170              		.thumb
 1171              		.thumb_func
 1172              		.type	LCD_blink, %function
 1173              	LCD_blink:
 1174              	.LFB86:
 195:rgb_lcd.c     **** 
 196:rgb_lcd.c     **** // Encender el parpadeo del cursor
 197:rgb_lcd.c     **** void LCD_blink(void) {
 1175              		.loc 1 197 0
 1176              		.cfi_startproc
 1177              		@ args = 0, pretend = 0, frame = 0
 1178              		@ frame_needed = 1, uses_anonymous_args = 0
 1179 0000 80B5     		push	{r7, lr}
 1180              		.cfi_def_cfa_offset 8
 1181              		.cfi_offset 7, -8
 1182              		.cfi_offset 14, -4
 1183 0002 00AF     		add	r7, sp, #0
 1184              		.cfi_def_cfa_register 7
 198:rgb_lcd.c     ****     _displaycontrol |= LCD_BLINKON;
 1185              		.loc 1 198 0
 1186 0004 084B     		ldr	r3, .L64
 1187 0006 1B78     		ldrb	r3, [r3]	@ zero_extendqisi2
 1188 0008 43F00103 		orr	r3, r3, #1
 1189 000c DAB2     		uxtb	r2, r3
 1190 000e 064B     		ldr	r3, .L64
 1191 0010 1A70     		strb	r2, [r3]
 199:rgb_lcd.c     ****     LCD_command(LCD_DISPLAYCONTROL | _displaycontrol);
 1192              		.loc 1 199 0
 1193 0012 054B     		ldr	r3, .L64
 1194 0014 1B78     		ldrb	r3, [r3]	@ zero_extendqisi2
 1195 0016 43F00803 		orr	r3, r3, #8
 1196 001a DBB2     		uxtb	r3, r3
 1197 001c 1846     		mov	r0, r3
 1198 001e FFF7FEFF 		bl	LCD_command
 200:rgb_lcd.c     **** }...
 1199              		.loc 1 200 0
 1200 0022 00BF     		nop
 1201 0024 80BD     		pop	{r7, pc}
 1202              	.L65:
 1203 0026 00BF     		.align	2
 1204              	.L64:
 1205 0028 00000000 		.word	_displaycontrol
 1206              		.cfi_endproc
 1207              	.LFE86:
 1208              		.size	LCD_blink, .-LCD_blink
 1209              		.text
 1210              	.Letext0:
 1211              		.file 2 "c:\\program files (x86)\\cypress\\psoc creator\\4.4\\psoc creator\\import\\gnu\\arm\\5.4.
 1212              		.file 3 "c:\\program files (x86)\\cypress\\psoc creator\\4.4\\psoc creator\\import\\gnu\\arm\\5.4.
 1213              		.file 4 "Generated_Source\\PSoC5/core_cm3.h"