ARM GAS  C:\Users\elias\AppData\Local\Temp\ccqcmet4.s 			page 1


   1              		.syntax unified
   2              		.cpu cortex-m3
   3              		.fpu softvfp
   4              		.eabi_attribute 20, 1
   5              		.eabi_attribute 21, 1
   6              		.eabi_attribute 23, 3
   7              		.eabi_attribute 24, 1
   8              		.eabi_attribute 25, 1
   9              		.eabi_attribute 26, 1
  10              		.eabi_attribute 30, 1
  11              		.eabi_attribute 34, 1
  12              		.eabi_attribute 18, 4
  13              		.thumb
  14              		.syntax unified
  15              		.file	"main.c"
  16              		.text
  17              	.Ltext0:
  18              		.cfi_sections	.debug_frame
  19              		.section	.text.finTimerAlarmaPuerta,"ax",%progbits
  20              		.align	2
  21              		.global	finTimerAlarmaPuerta
  22              		.thumb
  23              		.thumb_func
  24              		.type	finTimerAlarmaPuerta, %function
  25              	finTimerAlarmaPuerta:
  26              	.LFB67:
  27              		.file 1 "main.c"
   1:main.c        **** /* ========================================
   2:main.c        ****  *
   3:main.c        ****  * Copyright YOUR COMPANY, THE YEAR
   4:main.c        ****  * All Rights Reserved
   5:main.c        ****  * UNPUBLISHED, LICENSED SOFTWARE.
   6:main.c        ****  *
   7:main.c        ****  * CONFIDENTIAL AND PROPRIETARY INFORMATION
   8:main.c        ****  * WHICH IS THE PROPERTY OF your company.
   9:main.c        ****  *
  10:main.c        ****  * ========================================
  11:main.c        **** */
  12:main.c        **** 
  13:main.c        **** 
  14:main.c        **** #include "project.h"
  15:main.c        **** #include "keyboard.h"
  16:main.c        **** #include <stdio.h>
  17:main.c        **** 
  18:main.c        **** //char delta_timer = 0;
  19:main.c        **** 
  20:main.c        **** 
  21:main.c        **** #define MAX_PASS 4
  22:main.c        **** #define PASSWORD "1247"
  23:main.c        **** #define PERIOD_PUERTA_ABIERTA 10000u
  24:main.c        **** #define MAX_BUFFER 100
  25:main.c        **** char buffer[MAX_BUFFER];
  26:main.c        **** 
  27:main.c        **** ;
  28:main.c        **** uint8_t tiempoAbierto;
  29:main.c        **** union {
  30:main.c        ****     uint8_t state;
ARM GAS  C:\Users\elias\AppData\Local\Temp\ccqcmet4.s 			page 2


  31:main.c        ****     struct {
  32:main.c        ****     uint8_t puertaDesbloqueada:1;
  33:main.c        ****     uint8_t puertaAbierta:1;
  34:main.c        ****     uint8_t alarma:1;
  35:main.c        ****     }bit;
  36:main.c        **** } info;
  37:main.c        **** 
  38:main.c        **** 
  39:main.c        **** 
  40:main.c        **** uint16_t button = 0;
  41:main.c        **** volatile uint16_t buttonMain = 0;
  42:main.c        **** CY_ISR(intDebouncer)
  43:main.c        **** {
  44:main.c        ****     button  = debouncer(keyboard_out_Write,keyboard_in_Read);
  45:main.c        ****     if(button)
  46:main.c        ****         buttonMain = button;
  47:main.c        **** }
  48:main.c        **** 
  49:main.c        **** 
  50:main.c        **** 
  51:main.c        **** void interpretarTeclado(uint16_t b)
  52:main.c        **** {
  53:main.c        ****     static char password[MAX_PASS];
  54:main.c        ****     static uint8_t i = 0;
  55:main.c        ****     //char entrada;
  56:main.c        ****     switch(b)
  57:main.c        ****     {
  58:main.c        ****         case KEY_0:
  59:main.c        ****             password[i++] = '0';
  60:main.c        ****             PC_PutChar('0');
  61:main.c        ****             break;
  62:main.c        ****         case KEY_1:
  63:main.c        ****             password[i++] = '1';
  64:main.c        ****             PC_PutChar('1');
  65:main.c        ****             break;
  66:main.c        ****         case KEY_2:
  67:main.c        ****             password[i++] = '2';
  68:main.c        ****             PC_PutChar('2');
  69:main.c        ****             break;
  70:main.c        ****         case KEY_3:
  71:main.c        ****             password[i++] = '3';
  72:main.c        ****             PC_PutChar('3');
  73:main.c        ****             break;
  74:main.c        ****         case KEY_4:
  75:main.c        ****             password[i++] = '4';
  76:main.c        ****             PC_PutChar('4');
  77:main.c        ****             break;
  78:main.c        ****         case KEY_5:
  79:main.c        ****             password[i++] = '5';
  80:main.c        ****             PC_PutChar('5');
  81:main.c        ****             break;
  82:main.c        ****         case KEY_6:
  83:main.c        ****             password[i++] = '6';
  84:main.c        ****             PC_PutChar('6');
  85:main.c        ****             break;
  86:main.c        ****         case KEY_7:
  87:main.c        ****             password[i++] = '7';
ARM GAS  C:\Users\elias\AppData\Local\Temp\ccqcmet4.s 			page 3


  88:main.c        ****             PC_PutChar('7');
  89:main.c        ****             break;
  90:main.c        ****         case KEY_8:
  91:main.c        ****             password[i++] = '8';
  92:main.c        ****             PC_PutChar('8');
  93:main.c        ****             break;
  94:main.c        ****         case KEY_9:
  95:main.c        ****             password[i++] = '9';
  96:main.c        ****             PC_PutChar('9');
  97:main.c        ****             break;
  98:main.c        ****         case ESC_KEY:
  99:main.c        ****             if(i>0){
 100:main.c        ****                 i--;
 101:main.c        ****                 PC_PutChar('\b');
 102:main.c        ****                 PC_PutChar(' ');
 103:main.c        ****                 PC_PutChar('\b');
 104:main.c        ****                 
 105:main.c        ****             }
 106:main.c        ****             break;
 107:main.c        ****         case ENTER_KEY:
 108:main.c        ****             
 109:main.c        ****             if(strncmp(PASSWORD,password,4) == 0)
 110:main.c        ****             {
 111:main.c        ****                 info.bit.puertaDesbloqueada = 1;
 112:main.c        ****                 info.bit.alarma = 0;
 113:main.c        ****                 //timer_puertaAbierta_Enable();
 114:main.c        ****                 PC_PutStringConst("\n\rOK\n\r");
 115:main.c        ****             }
 116:main.c        ****             else{
 117:main.c        ****                 info.bit.alarma = 1;
 118:main.c        ****                 PC_PutStringConst("\n\rERROR\n\r");
 119:main.c        ****             }
 120:main.c        ****             password[0] = '\0';
 121:main.c        ****             break;
 122:main.c        ****         default:
 123:main.c        ****             break;
 124:main.c        ****            
 125:main.c        ****         
 126:main.c        ****         
 127:main.c        ****     }
 128:main.c        ****     if(i >= MAX_PASS)
 129:main.c        ****         i = 0;
 130:main.c        **** }
 131:main.c        **** 
 132:main.c        **** 
 133:main.c        **** 
 134:main.c        **** void prenderLeds()
 135:main.c        **** {
 136:main.c        ****     //snprintf(buffer,MAX_BUFFER,"%i\n\r",info.state);
 137:main.c        ****     //PC_PutString(buffer);
 138:main.c        ****     Led_Write(info.state&7);
 139:main.c        ****     //snprintf(buffer,MAX_BUFFER,"%i\n\r",aux);
 140:main.c        ****     //PC_PutString(buffer);
 141:main.c        **** }
 142:main.c        **** 
 143:main.c        **** CY_ISR(finTimerAlarmaPuerta)
 144:main.c        **** {
ARM GAS  C:\Users\elias\AppData\Local\Temp\ccqcmet4.s 			page 4


  28              		.loc 1 144 0
  29              		.cfi_startproc
  30              		@ args = 0, pretend = 0, frame = 0
  31              		@ frame_needed = 0, uses_anonymous_args = 0
  32              		@ link register save eliminated.
 145:main.c        ****     if(info.bit.puertaAbierta)
  33              		.loc 1 145 0
  34 0000 0A4B     		ldr	r3, .L4
  35 0002 1B78     		ldrb	r3, [r3]	@ zero_extendqisi2
  36 0004 13F0020F 		tst	r3, #2
  37 0008 03D0     		beq	.L2
 146:main.c        ****         info.bit.alarma = 1;
  38              		.loc 1 146 0
  39 000a 084A     		ldr	r2, .L4
  40 000c 43F00403 		orr	r3, r3, #4
  41 0010 1370     		strb	r3, [r2]
  42              	.L2:
 147:main.c        ****     if(info.bit.puertaDesbloqueada&&!info.bit.puertaAbierta)
  43              		.loc 1 147 0
  44 0012 064B     		ldr	r3, .L4
  45 0014 1B78     		ldrb	r3, [r3]	@ zero_extendqisi2
  46 0016 03F00303 		and	r3, r3, #3
  47 001a 012B     		cmp	r3, #1
  48 001c 04D1     		bne	.L1
 148:main.c        ****         info.bit.puertaDesbloqueada = 0;
  49              		.loc 1 148 0
  50 001e 034B     		ldr	r3, .L4
  51 0020 1A78     		ldrb	r2, [r3]	@ zero_extendqisi2
  52 0022 6FF30002 		bfc	r2, #0, #1
  53 0026 1A70     		strb	r2, [r3]
  54              	.L1:
  55 0028 7047     		bx	lr
  56              	.L5:
  57 002a 00BF     		.align	2
  58              	.L4:
  59 002c 00000000 		.word	info
  60              		.cfi_endproc
  61              	.LFE67:
  62              		.size	finTimerAlarmaPuerta, .-finTimerAlarmaPuerta
  63              		.section	.text.intentoAbrir,"ax",%progbits
  64              		.align	2
  65              		.global	intentoAbrir
  66              		.thumb
  67              		.thumb_func
  68              		.type	intentoAbrir, %function
  69              	intentoAbrir:
  70              	.LFB68:
 149:main.c        **** }
 150:main.c        **** 
 151:main.c        **** 
 152:main.c        **** CY_ISR(intentoAbrir)
 153:main.c        **** {
  71              		.loc 1 153 0
  72              		.cfi_startproc
  73              		@ args = 0, pretend = 0, frame = 0
  74              		@ frame_needed = 0, uses_anonymous_args = 0
  75              		@ link register save eliminated.
ARM GAS  C:\Users\elias\AppData\Local\Temp\ccqcmet4.s 			page 5


 154:main.c        ****     if(info.bit.puertaDesbloqueada)
  76              		.loc 1 154 0
  77 0000 074B     		ldr	r3, .L9
  78 0002 1B78     		ldrb	r3, [r3]	@ zero_extendqisi2
  79 0004 13F0010F 		tst	r3, #1
  80 0008 04D0     		beq	.L7
 155:main.c        ****         info.bit.puertaAbierta = 1;
  81              		.loc 1 155 0
  82 000a 054A     		ldr	r2, .L9
  83 000c 43F00203 		orr	r3, r3, #2
  84 0010 1370     		strb	r3, [r2]
  85 0012 7047     		bx	lr
  86              	.L7:
 156:main.c        ****     else
 157:main.c        ****         info.bit.alarma = 1;
  87              		.loc 1 157 0
  88 0014 024A     		ldr	r2, .L9
  89 0016 1378     		ldrb	r3, [r2]	@ zero_extendqisi2
  90 0018 43F00403 		orr	r3, r3, #4
  91 001c 1370     		strb	r3, [r2]
  92 001e 7047     		bx	lr
  93              	.L10:
  94              		.align	2
  95              	.L9:
  96 0020 00000000 		.word	info
  97              		.cfi_endproc
  98              	.LFE68:
  99              		.size	intentoAbrir, .-intentoAbrir
 100              		.section	.text.cerrar,"ax",%progbits
 101              		.align	2
 102              		.global	cerrar
 103              		.thumb
 104              		.thumb_func
 105              		.type	cerrar, %function
 106              	cerrar:
 107              	.LFB69:
 158:main.c        **** }
 159:main.c        **** 
 160:main.c        **** CY_ISR(cerrar)
 161:main.c        **** {
 108              		.loc 1 161 0
 109              		.cfi_startproc
 110              		@ args = 0, pretend = 0, frame = 0
 111              		@ frame_needed = 0, uses_anonymous_args = 0
 112              		@ link register save eliminated.
 162:main.c        ****     if(info.state == 7 || info.state == 3)
 113              		.loc 1 162 0
 114 0000 044B     		ldr	r3, .L14
 115 0002 1B78     		ldrb	r3, [r3]	@ zero_extendqisi2
 116 0004 072B     		cmp	r3, #7
 117 0006 01D0     		beq	.L12
 118              		.loc 1 162 0 is_stmt 0 discriminator 1
 119 0008 032B     		cmp	r3, #3
 120 000a 02D1     		bne	.L11
 121              	.L12:
 163:main.c        ****         info.state = 0;
 122              		.loc 1 163 0 is_stmt 1
ARM GAS  C:\Users\elias\AppData\Local\Temp\ccqcmet4.s 			page 6


 123 000c 0022     		movs	r2, #0
 124 000e 014B     		ldr	r3, .L14
 125 0010 1A70     		strb	r2, [r3]
 126              	.L11:
 127 0012 7047     		bx	lr
 128              	.L15:
 129              		.align	2
 130              	.L14:
 131 0014 00000000 		.word	info
 132              		.cfi_endproc
 133              	.LFE69:
 134              		.size	cerrar, .-cerrar
 135              		.section	.text.intDebouncer,"ax",%progbits
 136              		.align	2
 137              		.global	intDebouncer
 138              		.thumb
 139              		.thumb_func
 140              		.type	intDebouncer, %function
 141              	intDebouncer:
 142              	.LFB64:
  43:main.c        ****     button  = debouncer(keyboard_out_Write,keyboard_in_Read);
 143              		.loc 1 43 0
 144              		.cfi_startproc
 145              		@ args = 0, pretend = 0, frame = 0
 146              		@ frame_needed = 0, uses_anonymous_args = 0
 147 0000 08B5     		push	{r3, lr}
 148              		.cfi_def_cfa_offset 8
 149              		.cfi_offset 3, -8
 150              		.cfi_offset 14, -4
  44:main.c        ****     if(button)
 151              		.loc 1 44 0
 152 0002 0449     		ldr	r1, .L19
 153 0004 0448     		ldr	r0, .L19+4
 154 0006 FFF7FEFF 		bl	debouncer
 155              	.LVL0:
 156 000a 044B     		ldr	r3, .L19+8
 157 000c 1880     		strh	r0, [r3]	@ movhi
  45:main.c        ****         buttonMain = button;
 158              		.loc 1 45 0
 159 000e 00B1     		cbz	r0, .L16
  46:main.c        **** }
 160              		.loc 1 46 0
 161 0010 5880     		strh	r0, [r3, #2]	@ movhi
 162              	.L16:
 163 0012 08BD     		pop	{r3, pc}
 164              	.L20:
 165              		.align	2
 166              	.L19:
 167 0014 00000000 		.word	keyboard_in_Read
 168 0018 00000000 		.word	keyboard_out_Write
 169 001c 00000000 		.word	.LANCHOR0
 170              		.cfi_endproc
 171              	.LFE64:
 172              		.size	intDebouncer, .-intDebouncer
 173              		.section	.text.interpretarTeclado,"ax",%progbits
 174              		.align	2
 175              		.global	interpretarTeclado
ARM GAS  C:\Users\elias\AppData\Local\Temp\ccqcmet4.s 			page 7


 176              		.thumb
 177              		.thumb_func
 178              		.type	interpretarTeclado, %function
 179              	interpretarTeclado:
 180              	.LFB65:
  52:main.c        ****     static char password[MAX_PASS];
 181              		.loc 1 52 0
 182              		.cfi_startproc
 183              		@ args = 0, pretend = 0, frame = 0
 184              		@ frame_needed = 0, uses_anonymous_args = 0
 185              	.LVL1:
 186 0000 08B5     		push	{r3, lr}
 187              		.cfi_def_cfa_offset 8
 188              		.cfi_offset 3, -8
 189              		.cfi_offset 14, -4
  56:main.c        ****     {
 190              		.loc 1 56 0
 191 0002 1238     		subs	r0, r0, #18
 192              	.LVL2:
 193 0004 7228     		cmp	r0, #114
 194 0006 00F2CC80 		bhi	.L22
 195 000a DFE800F0 		tbb	[pc, r0]
 196              	.L24:
 197 000e 3A       		.byte	(.L23-.L24)/2
 198 000f CA       		.byte	(.L22-.L24)/2
 199 0010 CA       		.byte	(.L22-.L24)/2
 200 0011 CA       		.byte	(.L22-.L24)/2
 201 0012 CA       		.byte	(.L22-.L24)/2
 202 0013 CA       		.byte	(.L22-.L24)/2
 203 0014 AE       		.byte	(.L25-.L24)/2
 204 0015 CA       		.byte	(.L22-.L24)/2
 205 0016 CA       		.byte	(.L22-.L24)/2
 206 0017 CA       		.byte	(.L22-.L24)/2
 207 0018 CA       		.byte	(.L22-.L24)/2
 208 0019 CA       		.byte	(.L22-.L24)/2
 209 001a CA       		.byte	(.L22-.L24)/2
 210 001b CA       		.byte	(.L22-.L24)/2
 211 001c CA       		.byte	(.L22-.L24)/2
 212 001d 80       		.byte	(.L26-.L24)/2
 213 001e 8A       		.byte	(.L27-.L24)/2
 214 001f CA       		.byte	(.L22-.L24)/2
 215 0020 94       		.byte	(.L28-.L24)/2
 216 0021 CA       		.byte	(.L22-.L24)/2
 217 0022 CA       		.byte	(.L22-.L24)/2
 218 0023 CA       		.byte	(.L22-.L24)/2
 219 0024 9E       		.byte	(.L29-.L24)/2
 220 0025 CA       		.byte	(.L22-.L24)/2
 221 0026 CA       		.byte	(.L22-.L24)/2
 222 0027 CA       		.byte	(.L22-.L24)/2
 223 0028 CA       		.byte	(.L22-.L24)/2
 224 0029 CA       		.byte	(.L22-.L24)/2
 225 002a CA       		.byte	(.L22-.L24)/2
 226 002b CA       		.byte	(.L22-.L24)/2
 227 002c CA       		.byte	(.L22-.L24)/2
 228 002d CA       		.byte	(.L22-.L24)/2
 229 002e CA       		.byte	(.L22-.L24)/2
 230 002f CA       		.byte	(.L22-.L24)/2
ARM GAS  C:\Users\elias\AppData\Local\Temp\ccqcmet4.s 			page 8


 231 0030 CA       		.byte	(.L22-.L24)/2
 232 0031 CA       		.byte	(.L22-.L24)/2
 233 0032 CA       		.byte	(.L22-.L24)/2
 234 0033 CA       		.byte	(.L22-.L24)/2
 235 0034 CA       		.byte	(.L22-.L24)/2
 236 0035 CA       		.byte	(.L22-.L24)/2
 237 0036 CA       		.byte	(.L22-.L24)/2
 238 0037 CA       		.byte	(.L22-.L24)/2
 239 0038 CA       		.byte	(.L22-.L24)/2
 240 0039 CA       		.byte	(.L22-.L24)/2
 241 003a CA       		.byte	(.L22-.L24)/2
 242 003b CA       		.byte	(.L22-.L24)/2
 243 003c CA       		.byte	(.L22-.L24)/2
 244 003d 62       		.byte	(.L30-.L24)/2
 245 003e 6C       		.byte	(.L31-.L24)/2
 246 003f CA       		.byte	(.L22-.L24)/2
 247 0040 76       		.byte	(.L32-.L24)/2
 248 0041 CA       		.byte	(.L22-.L24)/2
 249 0042 CA       		.byte	(.L22-.L24)/2
 250 0043 CA       		.byte	(.L22-.L24)/2
 251 0044 CA       		.byte	(.L22-.L24)/2
 252 0045 CA       		.byte	(.L22-.L24)/2
 253 0046 CA       		.byte	(.L22-.L24)/2
 254 0047 CA       		.byte	(.L22-.L24)/2
 255 0048 CA       		.byte	(.L22-.L24)/2
 256 0049 CA       		.byte	(.L22-.L24)/2
 257 004a CA       		.byte	(.L22-.L24)/2
 258 004b CA       		.byte	(.L22-.L24)/2
 259 004c CA       		.byte	(.L22-.L24)/2
 260 004d CA       		.byte	(.L22-.L24)/2
 261 004e CA       		.byte	(.L22-.L24)/2
 262 004f CA       		.byte	(.L22-.L24)/2
 263 0050 CA       		.byte	(.L22-.L24)/2
 264 0051 CA       		.byte	(.L22-.L24)/2
 265 0052 CA       		.byte	(.L22-.L24)/2
 266 0053 CA       		.byte	(.L22-.L24)/2
 267 0054 CA       		.byte	(.L22-.L24)/2
 268 0055 CA       		.byte	(.L22-.L24)/2
 269 0056 CA       		.byte	(.L22-.L24)/2
 270 0057 CA       		.byte	(.L22-.L24)/2
 271 0058 CA       		.byte	(.L22-.L24)/2
 272 0059 CA       		.byte	(.L22-.L24)/2
 273 005a CA       		.byte	(.L22-.L24)/2
 274 005b CA       		.byte	(.L22-.L24)/2
 275 005c CA       		.byte	(.L22-.L24)/2
 276 005d CA       		.byte	(.L22-.L24)/2
 277 005e CA       		.byte	(.L22-.L24)/2
 278 005f CA       		.byte	(.L22-.L24)/2
 279 0060 CA       		.byte	(.L22-.L24)/2
 280 0061 CA       		.byte	(.L22-.L24)/2
 281 0062 CA       		.byte	(.L22-.L24)/2
 282 0063 CA       		.byte	(.L22-.L24)/2
 283 0064 CA       		.byte	(.L22-.L24)/2
 284 0065 CA       		.byte	(.L22-.L24)/2
 285 0066 CA       		.byte	(.L22-.L24)/2
 286 0067 CA       		.byte	(.L22-.L24)/2
 287 0068 CA       		.byte	(.L22-.L24)/2
ARM GAS  C:\Users\elias\AppData\Local\Temp\ccqcmet4.s 			page 9


 288 0069 CA       		.byte	(.L22-.L24)/2
 289 006a CA       		.byte	(.L22-.L24)/2
 290 006b CA       		.byte	(.L22-.L24)/2
 291 006c CA       		.byte	(.L22-.L24)/2
 292 006d CA       		.byte	(.L22-.L24)/2
 293 006e CA       		.byte	(.L22-.L24)/2
 294 006f CA       		.byte	(.L22-.L24)/2
 295 0070 CA       		.byte	(.L22-.L24)/2
 296 0071 CA       		.byte	(.L22-.L24)/2
 297 0072 CA       		.byte	(.L22-.L24)/2
 298 0073 CA       		.byte	(.L22-.L24)/2
 299 0074 CA       		.byte	(.L22-.L24)/2
 300 0075 CA       		.byte	(.L22-.L24)/2
 301 0076 CA       		.byte	(.L22-.L24)/2
 302 0077 CA       		.byte	(.L22-.L24)/2
 303 0078 CA       		.byte	(.L22-.L24)/2
 304 0079 CA       		.byte	(.L22-.L24)/2
 305 007a CA       		.byte	(.L22-.L24)/2
 306 007b CA       		.byte	(.L22-.L24)/2
 307 007c CA       		.byte	(.L22-.L24)/2
 308 007d 44       		.byte	(.L33-.L24)/2
 309 007e 4E       		.byte	(.L34-.L24)/2
 310 007f CA       		.byte	(.L22-.L24)/2
 311 0080 58       		.byte	(.L35-.L24)/2
 312 0081 00       		.p2align 1
 313              	.L23:
  59:main.c        ****             PC_PutChar('0');
 314              		.loc 1 59 0
 315 0082 4C4A     		ldr	r2, .L40
 316 0084 1379     		ldrb	r3, [r2, #4]	@ zero_extendqisi2
 317 0086 591C     		adds	r1, r3, #1
 318 0088 1171     		strb	r1, [r2, #4]
 319 008a 1344     		add	r3, r3, r2
 320 008c 3020     		movs	r0, #48
 321 008e 1872     		strb	r0, [r3, #8]
  60:main.c        ****             break;
 322              		.loc 1 60 0
 323 0090 FFF7FEFF 		bl	PC_PutChar
 324              	.LVL3:
  61:main.c        ****         case KEY_1:
 325              		.loc 1 61 0
 326 0094 85E0     		b	.L22
 327              	.L33:
  63:main.c        ****             PC_PutChar('1');
 328              		.loc 1 63 0
 329 0096 474A     		ldr	r2, .L40
 330 0098 1379     		ldrb	r3, [r2, #4]	@ zero_extendqisi2
 331 009a 591C     		adds	r1, r3, #1
 332 009c 1171     		strb	r1, [r2, #4]
 333 009e 1344     		add	r3, r3, r2
 334 00a0 3120     		movs	r0, #49
 335 00a2 1872     		strb	r0, [r3, #8]
  64:main.c        ****             break;
 336              		.loc 1 64 0
 337 00a4 FFF7FEFF 		bl	PC_PutChar
 338              	.LVL4:
  65:main.c        ****         case KEY_2:
ARM GAS  C:\Users\elias\AppData\Local\Temp\ccqcmet4.s 			page 10


 339              		.loc 1 65 0
 340 00a8 7BE0     		b	.L22
 341              	.L34:
  67:main.c        ****             PC_PutChar('2');
 342              		.loc 1 67 0
 343 00aa 424A     		ldr	r2, .L40
 344 00ac 1379     		ldrb	r3, [r2, #4]	@ zero_extendqisi2
 345 00ae 591C     		adds	r1, r3, #1
 346 00b0 1171     		strb	r1, [r2, #4]
 347 00b2 1344     		add	r3, r3, r2
 348 00b4 3220     		movs	r0, #50
 349 00b6 1872     		strb	r0, [r3, #8]
  68:main.c        ****             break;
 350              		.loc 1 68 0
 351 00b8 FFF7FEFF 		bl	PC_PutChar
 352              	.LVL5:
  69:main.c        ****         case KEY_3:
 353              		.loc 1 69 0
 354 00bc 71E0     		b	.L22
 355              	.L35:
  71:main.c        ****             PC_PutChar('3');
 356              		.loc 1 71 0
 357 00be 3D4A     		ldr	r2, .L40
 358 00c0 1379     		ldrb	r3, [r2, #4]	@ zero_extendqisi2
 359 00c2 591C     		adds	r1, r3, #1
 360 00c4 1171     		strb	r1, [r2, #4]
 361 00c6 1344     		add	r3, r3, r2
 362 00c8 3320     		movs	r0, #51
 363 00ca 1872     		strb	r0, [r3, #8]
  72:main.c        ****             break;
 364              		.loc 1 72 0
 365 00cc FFF7FEFF 		bl	PC_PutChar
 366              	.LVL6:
  73:main.c        ****         case KEY_4:
 367              		.loc 1 73 0
 368 00d0 67E0     		b	.L22
 369              	.L30:
  75:main.c        ****             PC_PutChar('4');
 370              		.loc 1 75 0
 371 00d2 384A     		ldr	r2, .L40
 372 00d4 1379     		ldrb	r3, [r2, #4]	@ zero_extendqisi2
 373 00d6 591C     		adds	r1, r3, #1
 374 00d8 1171     		strb	r1, [r2, #4]
 375 00da 1344     		add	r3, r3, r2
 376 00dc 3420     		movs	r0, #52
 377 00de 1872     		strb	r0, [r3, #8]
  76:main.c        ****             break;
 378              		.loc 1 76 0
 379 00e0 FFF7FEFF 		bl	PC_PutChar
 380              	.LVL7:
  77:main.c        ****         case KEY_5:
 381              		.loc 1 77 0
 382 00e4 5DE0     		b	.L22
 383              	.L31:
  79:main.c        ****             PC_PutChar('5');
 384              		.loc 1 79 0
 385 00e6 334A     		ldr	r2, .L40
ARM GAS  C:\Users\elias\AppData\Local\Temp\ccqcmet4.s 			page 11


 386 00e8 1379     		ldrb	r3, [r2, #4]	@ zero_extendqisi2
 387 00ea 591C     		adds	r1, r3, #1
 388 00ec 1171     		strb	r1, [r2, #4]
 389 00ee 1344     		add	r3, r3, r2
 390 00f0 3520     		movs	r0, #53
 391 00f2 1872     		strb	r0, [r3, #8]
  80:main.c        ****             break;
 392              		.loc 1 80 0
 393 00f4 FFF7FEFF 		bl	PC_PutChar
 394              	.LVL8:
  81:main.c        ****         case KEY_6:
 395              		.loc 1 81 0
 396 00f8 53E0     		b	.L22
 397              	.L32:
  83:main.c        ****             PC_PutChar('6');
 398              		.loc 1 83 0
 399 00fa 2E4A     		ldr	r2, .L40
 400 00fc 1379     		ldrb	r3, [r2, #4]	@ zero_extendqisi2
 401 00fe 591C     		adds	r1, r3, #1
 402 0100 1171     		strb	r1, [r2, #4]
 403 0102 1344     		add	r3, r3, r2
 404 0104 3620     		movs	r0, #54
 405 0106 1872     		strb	r0, [r3, #8]
  84:main.c        ****             break;
 406              		.loc 1 84 0
 407 0108 FFF7FEFF 		bl	PC_PutChar
 408              	.LVL9:
  85:main.c        ****         case KEY_7:
 409              		.loc 1 85 0
 410 010c 49E0     		b	.L22
 411              	.L26:
  87:main.c        ****             PC_PutChar('7');
 412              		.loc 1 87 0
 413 010e 294A     		ldr	r2, .L40
 414 0110 1379     		ldrb	r3, [r2, #4]	@ zero_extendqisi2
 415 0112 591C     		adds	r1, r3, #1
 416 0114 1171     		strb	r1, [r2, #4]
 417 0116 1344     		add	r3, r3, r2
 418 0118 3720     		movs	r0, #55
 419 011a 1872     		strb	r0, [r3, #8]
  88:main.c        ****             break;
 420              		.loc 1 88 0
 421 011c FFF7FEFF 		bl	PC_PutChar
 422              	.LVL10:
  89:main.c        ****         case KEY_8:
 423              		.loc 1 89 0
 424 0120 3FE0     		b	.L22
 425              	.L27:
  91:main.c        ****             PC_PutChar('8');
 426              		.loc 1 91 0
 427 0122 244A     		ldr	r2, .L40
 428 0124 1379     		ldrb	r3, [r2, #4]	@ zero_extendqisi2
 429 0126 591C     		adds	r1, r3, #1
 430 0128 1171     		strb	r1, [r2, #4]
 431 012a 1344     		add	r3, r3, r2
 432 012c 3820     		movs	r0, #56
 433 012e 1872     		strb	r0, [r3, #8]
ARM GAS  C:\Users\elias\AppData\Local\Temp\ccqcmet4.s 			page 12


  92:main.c        ****             break;
 434              		.loc 1 92 0
 435 0130 FFF7FEFF 		bl	PC_PutChar
 436              	.LVL11:
  93:main.c        ****         case KEY_9:
 437              		.loc 1 93 0
 438 0134 35E0     		b	.L22
 439              	.L28:
  95:main.c        ****             PC_PutChar('9');
 440              		.loc 1 95 0
 441 0136 1F4A     		ldr	r2, .L40
 442 0138 1379     		ldrb	r3, [r2, #4]	@ zero_extendqisi2
 443 013a 591C     		adds	r1, r3, #1
 444 013c 1171     		strb	r1, [r2, #4]
 445 013e 1344     		add	r3, r3, r2
 446 0140 3920     		movs	r0, #57
 447 0142 1872     		strb	r0, [r3, #8]
  96:main.c        ****             break;
 448              		.loc 1 96 0
 449 0144 FFF7FEFF 		bl	PC_PutChar
 450              	.LVL12:
  97:main.c        ****         case ESC_KEY:
 451              		.loc 1 97 0
 452 0148 2BE0     		b	.L22
 453              	.L29:
  99:main.c        ****                 i--;
 454              		.loc 1 99 0
 455 014a 1A4B     		ldr	r3, .L40
 456 014c 1B79     		ldrb	r3, [r3, #4]	@ zero_extendqisi2
 457 014e 43B3     		cbz	r3, .L22
 100:main.c        ****                 PC_PutChar('\b');
 458              		.loc 1 100 0
 459 0150 013B     		subs	r3, r3, #1
 460 0152 184A     		ldr	r2, .L40
 461 0154 1371     		strb	r3, [r2, #4]
 101:main.c        ****                 PC_PutChar(' ');
 462              		.loc 1 101 0
 463 0156 0820     		movs	r0, #8
 464 0158 FFF7FEFF 		bl	PC_PutChar
 465              	.LVL13:
 102:main.c        ****                 PC_PutChar('\b');
 466              		.loc 1 102 0
 467 015c 2020     		movs	r0, #32
 468 015e FFF7FEFF 		bl	PC_PutChar
 469              	.LVL14:
 103:main.c        ****                 
 470              		.loc 1 103 0
 471 0162 0820     		movs	r0, #8
 472 0164 FFF7FEFF 		bl	PC_PutChar
 473              	.LVL15:
 474 0168 1BE0     		b	.L22
 475              	.L25:
 109:main.c        ****             {
 476              		.loc 1 109 0
 477 016a 0422     		movs	r2, #4
 478 016c 1249     		ldr	r1, .L40+4
 479 016e 1348     		ldr	r0, .L40+8
ARM GAS  C:\Users\elias\AppData\Local\Temp\ccqcmet4.s 			page 13


 480 0170 FFF7FEFF 		bl	strncmp
 481              	.LVL16:
 482 0174 50B9     		cbnz	r0, .L36
 111:main.c        ****                 info.bit.alarma = 0;
 483              		.loc 1 111 0
 484 0176 124A     		ldr	r2, .L40+12
 485 0178 1378     		ldrb	r3, [r2]	@ zero_extendqisi2
 112:main.c        ****                 //timer_puertaAbierta_Enable();
 486              		.loc 1 112 0
 487 017a 43F00103 		orr	r3, r3, #1
 488 017e 6FF38203 		bfc	r3, #2, #1
 489 0182 1370     		strb	r3, [r2]
 114:main.c        ****             }
 490              		.loc 1 114 0
 491 0184 0F48     		ldr	r0, .L40+16
 492 0186 FFF7FEFF 		bl	PC_PutString
 493              	.LVL17:
 494 018a 07E0     		b	.L37
 495              	.L36:
 117:main.c        ****                 PC_PutStringConst("\n\rERROR\n\r");
 496              		.loc 1 117 0
 497 018c 0C4A     		ldr	r2, .L40+12
 498 018e 1378     		ldrb	r3, [r2]	@ zero_extendqisi2
 499 0190 43F00403 		orr	r3, r3, #4
 500 0194 1370     		strb	r3, [r2]
 118:main.c        ****             }
 501              		.loc 1 118 0
 502 0196 0C48     		ldr	r0, .L40+20
 503 0198 FFF7FEFF 		bl	PC_PutString
 504              	.LVL18:
 505              	.L37:
 120:main.c        ****             break;
 506              		.loc 1 120 0
 507 019c 0022     		movs	r2, #0
 508 019e 054B     		ldr	r3, .L40
 509 01a0 1A72     		strb	r2, [r3, #8]
 510              	.L22:
 128:main.c        ****         i = 0;
 511              		.loc 1 128 0
 512 01a2 044B     		ldr	r3, .L40
 513 01a4 1B79     		ldrb	r3, [r3, #4]	@ zero_extendqisi2
 514 01a6 032B     		cmp	r3, #3
 515 01a8 02D9     		bls	.L21
 129:main.c        **** }
 516              		.loc 1 129 0
 517 01aa 0022     		movs	r2, #0
 518 01ac 014B     		ldr	r3, .L40
 519 01ae 1A71     		strb	r2, [r3, #4]
 520              	.L21:
 521 01b0 08BD     		pop	{r3, pc}
 522              	.L41:
 523 01b2 00BF     		.align	2
 524              	.L40:
 525 01b4 00000000 		.word	.LANCHOR0
 526 01b8 08000000 		.word	.LANCHOR0+8
 527 01bc 00000000 		.word	.LC0
 528 01c0 00000000 		.word	info
ARM GAS  C:\Users\elias\AppData\Local\Temp\ccqcmet4.s 			page 14


 529 01c4 08000000 		.word	.LC1
 530 01c8 10000000 		.word	.LC2
 531              		.cfi_endproc
 532              	.LFE65:
 533              		.size	interpretarTeclado, .-interpretarTeclado
 534              		.section	.text.prenderLeds,"ax",%progbits
 535              		.align	2
 536              		.global	prenderLeds
 537              		.thumb
 538              		.thumb_func
 539              		.type	prenderLeds, %function
 540              	prenderLeds:
 541              	.LFB66:
 135:main.c        ****     //snprintf(buffer,MAX_BUFFER,"%i\n\r",info.state);
 542              		.loc 1 135 0
 543              		.cfi_startproc
 544              		@ args = 0, pretend = 0, frame = 0
 545              		@ frame_needed = 0, uses_anonymous_args = 0
 546 0000 08B5     		push	{r3, lr}
 547              		.cfi_def_cfa_offset 8
 548              		.cfi_offset 3, -8
 549              		.cfi_offset 14, -4
 138:main.c        ****     //snprintf(buffer,MAX_BUFFER,"%i\n\r",aux);
 550              		.loc 1 138 0
 551 0002 034B     		ldr	r3, .L44
 552 0004 1878     		ldrb	r0, [r3]	@ zero_extendqisi2
 553 0006 00F00700 		and	r0, r0, #7
 554 000a FFF7FEFF 		bl	Led_Write
 555              	.LVL19:
 556 000e 08BD     		pop	{r3, pc}
 557              	.L45:
 558              		.align	2
 559              	.L44:
 560 0010 00000000 		.word	info
 561              		.cfi_endproc
 562              	.LFE66:
 563              		.size	prenderLeds, .-prenderLeds
 564              		.section	.text.main,"ax",%progbits
 565              		.align	2
 566              		.global	main
 567              		.thumb
 568              		.thumb_func
 569              		.type	main, %function
 570              	main:
 571              	.LFB70:
 164:main.c        ****     
 165:main.c        **** }
 166:main.c        **** 
 167:main.c        **** int main(void)
 168:main.c        **** {
 572              		.loc 1 168 0
 573              		.cfi_startproc
 574              		@ Volatile: function does not return.
 575              		@ args = 0, pretend = 0, frame = 0
 576              		@ frame_needed = 0, uses_anonymous_args = 0
 577 0000 08B5     		push	{r3, lr}
 578              		.cfi_def_cfa_offset 8
ARM GAS  C:\Users\elias\AppData\Local\Temp\ccqcmet4.s 			page 15


 579              		.cfi_offset 3, -8
 580              		.cfi_offset 14, -4
 169:main.c        ****     CyGlobalIntEnable; /* Enable global interrupts. */
 581              		.loc 1 169 0
 582              		.syntax unified
 583              	@ 169 "main.c" 1
 584 0002 62B6     		CPSIE   i
 585              	@ 0 "" 2
 170:main.c        ****     info.state = 0;
 586              		.loc 1 170 0
 587              		.thumb
 588              		.syntax unified
 589 0004 0022     		movs	r2, #0
 590 0006 184B     		ldr	r3, .L50
 591 0008 1A70     		strb	r2, [r3]
 171:main.c        ****     /* Place your initialization/startup code here (e.g. MyInst_Start()) */
 172:main.c        ****     timer_debouncer_Start();
 592              		.loc 1 172 0
 593 000a FFF7FEFF 		bl	timer_debouncer_Start
 594              	.LVL20:
 173:main.c        ****     //Timer_256ms_EnableTriggerMode;
 174:main.c        ****     int_debouncer_StartEx(intDebouncer);
 595              		.loc 1 174 0
 596 000e 1748     		ldr	r0, .L50+4
 597 0010 FFF7FEFF 		bl	int_debouncer_StartEx
 598              	.LVL21:
 175:main.c        ****     
 176:main.c        ****     timer_puertaAbierta_WritePeriod(PERIOD_PUERTA_ABIERTA);
 599              		.loc 1 176 0
 600 0014 42F21070 		movw	r0, #10000
 601 0018 FFF7FEFF 		bl	timer_puertaAbierta_WritePeriod
 602              	.LVL22:
 177:main.c        ****     timer_puertaAbierta_Start();
 603              		.loc 1 177 0
 604 001c FFF7FEFF 		bl	timer_puertaAbierta_Start
 605              	.LVL23:
 178:main.c        ****     int_puertaAbierta_StartEx(finTimerAlarmaPuerta);
 606              		.loc 1 178 0
 607 0020 1348     		ldr	r0, .L50+8
 608 0022 FFF7FEFF 		bl	int_puertaAbierta_StartEx
 609              	.LVL24:
 179:main.c        ****     int_puertaAbierta_Enable();
 610              		.loc 1 179 0
 611 0026 FFF7FEFF 		bl	int_puertaAbierta_Enable
 612              	.LVL25:
 180:main.c        ****     PC_Start();
 613              		.loc 1 180 0
 614 002a FFF7FEFF 		bl	PC_Start
 615              	.LVL26:
 181:main.c        ****     
 182:main.c        ****     int_sensorON_Start();
 616              		.loc 1 182 0
 617 002e FFF7FEFF 		bl	int_sensorON_Start
 618              	.LVL27:
 183:main.c        ****     int_sensorON_StartEx(intentoAbrir);
 619              		.loc 1 183 0
 620 0032 1048     		ldr	r0, .L50+12
ARM GAS  C:\Users\elias\AppData\Local\Temp\ccqcmet4.s 			page 16


 621 0034 FFF7FEFF 		bl	int_sensorON_StartEx
 622              	.LVL28:
 184:main.c        ****     int_sensorON_Enable();
 623              		.loc 1 184 0
 624 0038 FFF7FEFF 		bl	int_sensorON_Enable
 625              	.LVL29:
 185:main.c        ****     
 186:main.c        ****     int_sensorOFF_Start();
 626              		.loc 1 186 0
 627 003c FFF7FEFF 		bl	int_sensorOFF_Start
 628              	.LVL30:
 187:main.c        ****     int_sensorOFF_StartEx(cerrar);
 629              		.loc 1 187 0
 630 0040 0D48     		ldr	r0, .L50+16
 631 0042 FFF7FEFF 		bl	int_sensorOFF_StartEx
 632              	.LVL31:
 188:main.c        ****     int_sensorOFF_Enable();
 633              		.loc 1 188 0
 634 0046 FFF7FEFF 		bl	int_sensorOFF_Enable
 635              	.LVL32:
 636              	.L48:
 189:main.c        ****     
 190:main.c        ****     for(;;)
 191:main.c        ****     {
 192:main.c        ****         
 193:main.c        ****         if(buttonMain)
 637              		.loc 1 193 0
 638 004a 0C4B     		ldr	r3, .L50+20
 639 004c 5B88     		ldrh	r3, [r3, #2]
 640 004e 9BB2     		uxth	r3, r3
 641 0050 33B1     		cbz	r3, .L47
 194:main.c        ****         {
 195:main.c        ****             interpretarTeclado(buttonMain);
 642              		.loc 1 195 0
 643 0052 0A4C     		ldr	r4, .L50+20
 644 0054 6088     		ldrh	r0, [r4, #2]
 645 0056 80B2     		uxth	r0, r0
 646 0058 FFF7FEFF 		bl	interpretarTeclado
 647              	.LVL33:
 196:main.c        ****             buttonMain = 0;
 648              		.loc 1 196 0
 649 005c 0023     		movs	r3, #0
 650 005e 6380     		strh	r3, [r4, #2]	@ movhi
 651              	.L47:
 197:main.c        ****         }
 198:main.c        ****         prenderLeds();
 652              		.loc 1 198 0
 653 0060 FFF7FEFF 		bl	prenderLeds
 654              	.LVL34:
 199:main.c        ****     }
 655              		.loc 1 199 0
 656 0064 F1E7     		b	.L48
 657              	.L51:
 658 0066 00BF     		.align	2
 659              	.L50:
 660 0068 00000000 		.word	info
 661 006c 00000000 		.word	intDebouncer
ARM GAS  C:\Users\elias\AppData\Local\Temp\ccqcmet4.s 			page 17


 662 0070 00000000 		.word	finTimerAlarmaPuerta
 663 0074 00000000 		.word	intentoAbrir
 664 0078 00000000 		.word	cerrar
 665 007c 00000000 		.word	.LANCHOR0
 666              		.cfi_endproc
 667              	.LFE70:
 668              		.size	main, .-main
 669              		.global	buttonMain
 670              		.global	button
 671              		.comm	info,1,4
 672              		.comm	tiempoAbierto,1,1
 673              		.comm	buffer,100,4
 674              		.section	.rodata.str1.4,"aMS",%progbits,1
 675              		.align	2
 676              	.LC0:
 677 0000 31323437 		.ascii	"1247\000"
 677      00
 678 0005 000000   		.space	3
 679              	.LC1:
 680 0008 0A0D4F4B 		.ascii	"\012\015OK\012\015\000"
 680      0A0D00
 681 000f 00       		.space	1
 682              	.LC2:
 683 0010 0A0D4552 		.ascii	"\012\015ERROR\012\015\000"
 683      524F520A 
 683      0D00
 684              		.bss
 685              		.align	2
 686              		.set	.LANCHOR0,. + 0
 687              		.type	button, %object
 688              		.size	button, 2
 689              	button:
 690 0000 0000     		.space	2
 691              		.type	buttonMain, %object
 692              		.size	buttonMain, 2
 693              	buttonMain:
 694 0002 0000     		.space	2
 695              		.type	i.6693, %object
 696              		.size	i.6693, 1
 697              	i.6693:
 698 0004 00       		.space	1
 699 0005 000000   		.space	3
 700              		.type	password.6692, %object
 701              		.size	password.6692, 4
 702              	password.6692:
 703 0008 00000000 		.space	4
 704              		.text
 705              	.Letext0:
 706              		.file 2 "c:\\program files (x86)\\cypress\\psoc creator\\4.4\\psoc creator\\import\\gnu\\arm\\5.4.
 707              		.file 3 "c:\\program files (x86)\\cypress\\psoc creator\\4.4\\psoc creator\\import\\gnu\\arm\\5.4.
 708              		.file 4 "Generated_Source\\PSoC5/core_cm3.h"
 709              		.file 5 "keyboard.h"
 710              		.file 6 "Generated_Source\\PSoC5/PC.h"
 711              		.file 7 "c:\\program files (x86)\\cypress\\psoc creator\\4.4\\psoc creator\\import\\gnu\\arm\\5.4.
 712              		.file 8 "Generated_Source\\PSoC5/Led.h"
 713              		.file 9 "Generated_Source\\PSoC5/timer_debouncer.h"
 714              		.file 10 "Generated_Source\\PSoC5/int_debouncer.h"
ARM GAS  C:\Users\elias\AppData\Local\Temp\ccqcmet4.s 			page 18


 715              		.file 11 "Generated_Source\\PSoC5/timer_puertaAbierta.h"
 716              		.file 12 "Generated_Source\\PSoC5/int_puertaAbierta.h"
 717              		.file 13 "Generated_Source\\PSoC5/int_sensorON.h"
 718              		.file 14 "Generated_Source\\PSoC5/int_sensorOFF.h"