ARM GAS  C:\Users\elias\AppData\Local\Temp\ccAfQ7CI.s 			page 1


   1              		.syntax unified
   2              		.cpu cortex-m3
   3              		.fpu softvfp
   4              		.eabi_attribute 20, 1
   5              		.eabi_attribute 21, 1
   6              		.eabi_attribute 23, 3
   7              		.eabi_attribute 24, 1
   8              		.eabi_attribute 25, 1
   9              		.eabi_attribute 26, 1
  10              		.eabi_attribute 30, 1
  11              		.eabi_attribute 34, 1
  12              		.eabi_attribute 18, 4
  13              		.thumb
  14              		.syntax unified
  15              		.file	"keyboard.c"
  16              		.text
  17              	.Ltext0:
  18              		.cfi_sections	.debug_frame
  19              		.section	.text.readKeyboard,"ax",%progbits
  20              		.align	2
  21              		.global	readKeyboard
  22              		.thumb
  23              		.thumb_func
  24              		.type	readKeyboard, %function
  25              	readKeyboard:
  26              	.LFB64:
  27              		.file 1 "keyboard.c"
   1:keyboard.c    **** #include <stdio.h>
   2:keyboard.c    **** #include "keyboard.h"
   3:keyboard.c    **** 
   4:keyboard.c    **** 
   5:keyboard.c    **** 
   6:keyboard.c    **** //KeyPosition decoderReadKeyboard(uint8_t code) {
   7:keyboard.c    **** //    KeyPosition activeKey;
   8:keyboard.c    **** //    uint8_t rowCode = code & MASK_ROW_KB, columnCode = code >> MAX_COLUMN_KB;
   9:keyboard.c    **** //
  10:keyboard.c    **** //    // Encontrar la posición de la fila activa
  11:keyboard.c    **** //    activeKey.row = 0;
  12:keyboard.c    **** //    while (rowCode >>= 1) activeKey.row++;
  13:keyboard.c    **** //
  14:keyboard.c    **** //    // Encontrar la posición de la columna activa
  15:keyboard.c    **** //    activeKey.column = 0;
  16:keyboard.c    **** //    while (columnCode >>= 1) activeKey.column++;
  17:keyboard.c    **** //    
  18:keyboard.c    **** //    return activeKey;
  19:keyboard.c    **** //}
  20:keyboard.c    **** uint16_t readKeyboard(void (*write)(uint8_t), uint8_t (*read)(void)) {
  28              		.loc 1 20 0
  29              		.cfi_startproc
  30              		@ args = 0, pretend = 0, frame = 0
  31              		@ frame_needed = 0, uses_anonymous_args = 0
  32              	.LVL0:
  33 0000 70B5     		push	{r4, r5, r6, lr}
  34              		.cfi_def_cfa_offset 16
  35              		.cfi_offset 4, -16
  36              		.cfi_offset 5, -12
  37              		.cfi_offset 6, -8
ARM GAS  C:\Users\elias\AppData\Local\Temp\ccAfQ7CI.s 			page 2


  38              		.cfi_offset 14, -4
  39 0002 0646     		mov	r6, r0
  40 0004 0D46     		mov	r5, r1
  41              	.LVL1:
  21:keyboard.c    ****     uint8_t column, row;
  22:keyboard.c    ****     uint16_t result = 0;
  23:keyboard.c    **** 
  24:keyboard.c    ****     // Recorre todas las columnas (activas)
  25:keyboard.c    ****     for (column = (1 << (MAX_COLUMN_KB)); column > 0; column >>= 1) {
  42              		.loc 1 25 0
  43 0006 1024     		movs	r4, #16
  44 0008 08E0     		b	.L2
  45              	.LVL2:
  46              	.L5:
  26:keyboard.c    ****         write(column);  // Envía la señal activa (columna)
  47              		.loc 1 26 0
  48 000a 2046     		mov	r0, r4
  49 000c B047     		blx	r6
  50              	.LVL3:
  27:keyboard.c    **** 
  28:keyboard.c    ****         // Si es necesario un delay para que el teclado se estabilice hay que ver
  29:keyboard.c    ****         // Cydelay(ALGO)???;
  30:keyboard.c    **** 
  31:keyboard.c    ****         row = read();  // Lee las filas pasivas
  51              		.loc 1 31 0
  52 000e A847     		blx	r5
  53              	.LVL4:
  32:keyboard.c    ****         if (row != 0) {  // Si alguna fila está activa (se detecta una tecla presionada)
  54              		.loc 1 32 0
  55 0010 18B1     		cbz	r0, .L3
  33:keyboard.c    ****             result = (column << (MAX_ROW_KB-1)) | row;  // Combina los bits de columna y fila
  56              		.loc 1 33 0
  57 0012 40EA0414 		orr	r4, r0, r4, lsl #4
  58              	.LVL5:
  59 0016 A0B2     		uxth	r0, r4
  60              	.LVL6:
  34:keyboard.c    ****             break;  // Sale del ciclo si se detecta una pulsación
  61              		.loc 1 34 0
  62 0018 70BD     		pop	{r4, r5, r6, pc}
  63              	.LVL7:
  64              	.L3:
  25:keyboard.c    ****         write(column);  // Envía la señal activa (columna)
  65              		.loc 1 25 0 discriminator 2
  66 001a 6408     		lsrs	r4, r4, #1
  67              	.LVL8:
  68              	.L2:
  25:keyboard.c    ****         write(column);  // Envía la señal activa (columna)
  69              		.loc 1 25 0 is_stmt 0 discriminator 1
  70 001c 002C     		cmp	r4, #0
  71 001e F4D1     		bne	.L5
  22:keyboard.c    **** 
  72              		.loc 1 22 0 is_stmt 1
  73 0020 0020     		movs	r0, #0
  74              	.LVL9:
  35:keyboard.c    ****         }
  36:keyboard.c    ****     }
  37:keyboard.c    **** 
ARM GAS  C:\Users\elias\AppData\Local\Temp\ccAfQ7CI.s 			page 3


  38:keyboard.c    ****     return result;
  39:keyboard.c    **** }
  75              		.loc 1 39 0
  76 0022 70BD     		pop	{r4, r5, r6, pc}
  77              		.cfi_endproc
  78              	.LFE64:
  79              		.size	readKeyboard, .-readKeyboard
  80              		.section	.text.debouncer,"ax",%progbits
  81              		.align	2
  82              		.global	debouncer
  83              		.thumb
  84              		.thumb_func
  85              		.type	debouncer, %function
  86              	debouncer:
  87              	.LFB65:
  40:keyboard.c    **** 
  41:keyboard.c    **** uint16_t debouncer(void (*write)(uint8_t), uint8_t (*read)(void)){
  88              		.loc 1 41 0
  89              		.cfi_startproc
  90              		@ args = 0, pretend = 0, frame = 0
  91              		@ frame_needed = 0, uses_anonymous_args = 0
  92              	.LVL10:
  93 0000 08B5     		push	{r3, lr}
  94              		.cfi_def_cfa_offset 8
  95              		.cfi_offset 3, -8
  96              		.cfi_offset 14, -4
  97              	.LVL11:
  42:keyboard.c    ****     // Definir el enum
  43:keyboard.c    ****     enum myState {noInput, firstTime, secondTime, firstTimeOut};
  44:keyboard.c    ****     // Declarar una variable del tipo enum state
  45:keyboard.c    ****     static enum myState state = noInput;
  46:keyboard.c    ****     uint16_t filtredInput = 0, currentInputDetected;
  47:keyboard.c    ****     static uint16_t lastInputDetected;
  48:keyboard.c    ****     currentInputDetected = readKeyboard(write, read);
  98              		.loc 1 48 0
  99 0002 FFF7FEFF 		bl	readKeyboard
 100              	.LVL12:
 101 0006 0246     		mov	r2, r0
 102              	.LVL13:
  49:keyboard.c    ****     switch(state)
 103              		.loc 1 49 0
 104 0008 264B     		ldr	r3, .L23
 105 000a 1B78     		ldrb	r3, [r3]	@ zero_extendqisi2
 106 000c 032B     		cmp	r3, #3
 107 000e 40D8     		bhi	.L8
 108 0010 DFE803F0 		tbb	[pc, r3]
 109              	.L10:
 110 0014 02       		.byte	(.L9-.L10)/2
 111 0015 0A       		.byte	(.L11-.L10)/2
 112 0016 1A       		.byte	(.L12-.L10)/2
 113 0017 2A       		.byte	(.L13-.L10)/2
 114              		.p2align 1
 115              	.L9:
  50:keyboard.c    ****     {
  51:keyboard.c    ****         case noInput:
  52:keyboard.c    ****             if(currentInputDetected){
 116              		.loc 1 52 0
ARM GAS  C:\Users\elias\AppData\Local\Temp\ccAfQ7CI.s 			page 4


 117 0018 0028     		cmp	r0, #0
 118 001a 3ED0     		beq	.L20
  53:keyboard.c    ****                 lastInputDetected = currentInputDetected;
 119              		.loc 1 53 0
 120 001c 214B     		ldr	r3, .L23
 121 001e 5880     		strh	r0, [r3, #2]	@ movhi
  54:keyboard.c    ****                 state = firstTime;
 122              		.loc 1 54 0
 123 0020 0122     		movs	r2, #1
 124 0022 1A70     		strb	r2, [r3]
  46:keyboard.c    ****     static uint16_t lastInputDetected;
 125              		.loc 1 46 0
 126 0024 0020     		movs	r0, #0
 127              	.LVL14:
 128 0026 08BD     		pop	{r3, pc}
 129              	.LVL15:
 130              	.L11:
  55:keyboard.c    ****             }
  56:keyboard.c    ****             break;
  57:keyboard.c    ****         case firstTime:
  58:keyboard.c    ****             //falso positivo, fue solo ruido
  59:keyboard.c    ****             if(currentInputDetected == 0) 
 131              		.loc 1 59 0
 132 0028 18B9     		cbnz	r0, .L15
  60:keyboard.c    ****                 state = noInput;
 133              		.loc 1 60 0
 134 002a 0020     		movs	r0, #0
 135              	.LVL16:
 136 002c 1D4B     		ldr	r3, .L23
 137 002e 1870     		strb	r0, [r3]
 138 0030 08BD     		pop	{r3, pc}
 139              	.LVL17:
 140              	.L15:
  61:keyboard.c    ****             //señal constante, por lo tanto valida
  62:keyboard.c    ****             else if(currentInputDetected == lastInputDetected)
 141              		.loc 1 62 0
 142 0032 1C4B     		ldr	r3, .L23
 143 0034 5888     		ldrh	r0, [r3, #2]
 144              	.LVL18:
 145 0036 8242     		cmp	r2, r0
 146 0038 02D1     		bne	.L16
  63:keyboard.c    ****             {
  64:keyboard.c    ****                 state = secondTime;
 147              		.loc 1 64 0
 148 003a 0222     		movs	r2, #2
 149 003c 1A70     		strb	r2, [r3]
 150              	.LVL19:
 151 003e 08BD     		pop	{r3, pc}
 152              	.LVL20:
 153              	.L16:
  65:keyboard.c    ****                 filtredInput = lastInputDetected;
  66:keyboard.c    ****             }
  67:keyboard.c    ****             //2 botones pulsados seguidos, consideramos solo el ultimo
  68:keyboard.c    ****             else
  69:keyboard.c    ****                 lastInputDetected = currentInputDetected;
 154              		.loc 1 69 0
 155 0040 184B     		ldr	r3, .L23
ARM GAS  C:\Users\elias\AppData\Local\Temp\ccAfQ7CI.s 			page 5


 156 0042 5A80     		strh	r2, [r3, #2]	@ movhi
  46:keyboard.c    ****     static uint16_t lastInputDetected;
 157              		.loc 1 46 0
 158 0044 0020     		movs	r0, #0
 159 0046 08BD     		pop	{r3, pc}
 160              	.LVL21:
 161              	.L12:
  70:keyboard.c    ****                 
  71:keyboard.c    ****             break;
  72:keyboard.c    ****         case secondTime:
  73:keyboard.c    ****             //boton dejo de pulsarse, pasamos a firstTimeOut
  74:keyboard.c    ****             if(currentInputDetected == 0){
 162              		.loc 1 74 0
 163 0048 20B9     		cbnz	r0, .L17
  75:keyboard.c    ****                 state = firstTimeOut;
 164              		.loc 1 75 0
 165 004a 0322     		movs	r2, #3
 166 004c 154B     		ldr	r3, .L23
 167 004e 1A70     		strb	r2, [r3]
  46:keyboard.c    ****     static uint16_t lastInputDetected;
 168              		.loc 1 46 0
 169 0050 0020     		movs	r0, #0
 170              	.LVL22:
 171 0052 08BD     		pop	{r3, pc}
 172              	.LVL23:
 173              	.L17:
  76:keyboard.c    ****             }
  77:keyboard.c    ****             //instantaneamente despues de la otra señal, pulsamos otro boton
  78:keyboard.c    ****             else if(lastInputDetected != currentInputDetected)
 174              		.loc 1 78 0
 175 0054 134B     		ldr	r3, .L23
 176 0056 5B88     		ldrh	r3, [r3, #2]
 177 0058 9842     		cmp	r0, r3
 178 005a 20D0     		beq	.L21
  79:keyboard.c    ****             {
  80:keyboard.c    ****                 lastInputDetected = currentInputDetected;
 179              		.loc 1 80 0
 180 005c 114B     		ldr	r3, .L23
 181 005e 5880     		strh	r0, [r3, #2]	@ movhi
  81:keyboard.c    ****                 state = firstTime;
 182              		.loc 1 81 0
 183 0060 0122     		movs	r2, #1
 184 0062 1A70     		strb	r2, [r3]
  46:keyboard.c    ****     static uint16_t lastInputDetected;
 185              		.loc 1 46 0
 186 0064 0020     		movs	r0, #0
 187              	.LVL24:
 188 0066 08BD     		pop	{r3, pc}
 189              	.LVL25:
 190              	.L13:
  82:keyboard.c    ****             }
  83:keyboard.c    ****             //si no hacemos nada, es que el boton aun no ha sido soltado
  84:keyboard.c    ****             break;
  85:keyboard.c    ****         case firstTimeOut:
  86:keyboard.c    ****             //boton dejo de pulsarse por 2 periodos, por lo que reiniciamos la maquina
  87:keyboard.c    ****             if(currentInputDetected == 0){
 191              		.loc 1 87 0
ARM GAS  C:\Users\elias\AppData\Local\Temp\ccAfQ7CI.s 			page 6


 192 0068 20B9     		cbnz	r0, .L18
  88:keyboard.c    ****                 state = noInput;
 193              		.loc 1 88 0
 194 006a 0E4B     		ldr	r3, .L23
 195 006c 0020     		movs	r0, #0
 196              	.LVL26:
 197 006e 1870     		strb	r0, [r3]
  89:keyboard.c    ****                 lastInputDetected = 0;
 198              		.loc 1 89 0
 199 0070 5880     		strh	r0, [r3, #2]	@ movhi
 200 0072 08BD     		pop	{r3, pc}
 201              	.LVL27:
 202              	.L18:
  90:keyboard.c    ****             }
  91:keyboard.c    ****             //instantaneamente despues de la otra señal, pulsamos otro boton
  92:keyboard.c    ****             else if(lastInputDetected != currentInputDetected)
 203              		.loc 1 92 0
 204 0074 0B4B     		ldr	r3, .L23
 205 0076 5B88     		ldrh	r3, [r3, #2]
 206 0078 9842     		cmp	r0, r3
 207 007a 05D0     		beq	.L19
  93:keyboard.c    ****             {
  94:keyboard.c    ****                 //filtredInput = lastInputDetected;
  95:keyboard.c    ****                 lastInputDetected = currentInputDetected;
 208              		.loc 1 95 0
 209 007c 094B     		ldr	r3, .L23
 210 007e 5880     		strh	r0, [r3, #2]	@ movhi
  96:keyboard.c    ****                 state = firstTime;
 211              		.loc 1 96 0
 212 0080 0122     		movs	r2, #1
 213 0082 1A70     		strb	r2, [r3]
  46:keyboard.c    ****     static uint16_t lastInputDetected;
 214              		.loc 1 46 0
 215 0084 0020     		movs	r0, #0
 216              	.LVL28:
 217 0086 08BD     		pop	{r3, pc}
 218              	.LVL29:
 219              	.L19:
  97:keyboard.c    ****             }
  98:keyboard.c    ****             //si es igual a lastInputDetected, fue un falso positivo de que se haya soltado
  99:keyboard.c    ****             //por lo que volvemos a secondTime
 100:keyboard.c    ****             else 
 101:keyboard.c    ****                 state = secondTime;
 220              		.loc 1 101 0
 221 0088 0222     		movs	r2, #2
 222 008a 064B     		ldr	r3, .L23
 223 008c 1A70     		strb	r2, [r3]
  46:keyboard.c    ****     static uint16_t lastInputDetected;
 224              		.loc 1 46 0
 225 008e 0020     		movs	r0, #0
 226              	.LVL30:
 227 0090 08BD     		pop	{r3, pc}
 228              	.LVL31:
 229              	.L8:
 102:keyboard.c    ****             
 103:keyboard.c    ****             break;
 104:keyboard.c    ****         default:
ARM GAS  C:\Users\elias\AppData\Local\Temp\ccAfQ7CI.s 			page 7


 105:keyboard.c    ****             state = noInput;
 230              		.loc 1 105 0
 231 0092 0020     		movs	r0, #0
 232              	.LVL32:
 233 0094 034B     		ldr	r3, .L23
 234 0096 1870     		strb	r0, [r3]
 235 0098 08BD     		pop	{r3, pc}
 236              	.LVL33:
 237              	.L20:
  46:keyboard.c    ****     static uint16_t lastInputDetected;
 238              		.loc 1 46 0
 239 009a 0020     		movs	r0, #0
 240              	.LVL34:
 241 009c 08BD     		pop	{r3, pc}
 242              	.LVL35:
 243              	.L21:
 244 009e 0020     		movs	r0, #0
 245              	.LVL36:
 106:keyboard.c    ****     }
 107:keyboard.c    ****     return filtredInput;
 108:keyboard.c    **** }
 246              		.loc 1 108 0
 247 00a0 08BD     		pop	{r3, pc}
 248              	.L24:
 249 00a2 00BF     		.align	2
 250              	.L23:
 251 00a4 00000000 		.word	.LANCHOR0
 252              		.cfi_endproc
 253              	.LFE65:
 254              		.size	debouncer, .-debouncer
 255              		.section	.text.echoButton,"ax",%progbits
 256              		.align	2
 257              		.global	echoButton
 258              		.thumb
 259              		.thumb_func
 260              		.type	echoButton, %function
 261              	echoButton:
 262              	.LFB66:
 109:keyboard.c    **** 
 110:keyboard.c    **** 
 111:keyboard.c    **** void echoButton(uint16_t b,char8* bufferTX, uint8 max, void (*putString)(const char8*))
 112:keyboard.c    **** {
 263              		.loc 1 112 0
 264              		.cfi_startproc
 265              		@ args = 0, pretend = 0, frame = 0
 266              		@ frame_needed = 0, uses_anonymous_args = 0
 267              	.LVL37:
 268 0000 38B5     		push	{r3, r4, r5, lr}
 269              		.cfi_def_cfa_offset 16
 270              		.cfi_offset 3, -16
 271              		.cfi_offset 4, -12
 272              		.cfi_offset 5, -8
 273              		.cfi_offset 14, -4
 274 0002 0C46     		mov	r4, r1
 275 0004 1146     		mov	r1, r2
 276              	.LVL38:
 277 0006 1D46     		mov	r5, r3
ARM GAS  C:\Users\elias\AppData\Local\Temp\ccAfQ7CI.s 			page 8


 113:keyboard.c    ****     
 114:keyboard.c    ****     switch(b)
 278              		.loc 1 114 0
 279 0008 4228     		cmp	r0, #66
 280 000a 00F08D80 		beq	.L27
 281 000e 1CD8     		bhi	.L28
 282 0010 1828     		cmp	r0, #24
 283 0012 58D0     		beq	.L29
 284 0014 0BD8     		bhi	.L30
 285 0016 1128     		cmp	r0, #17
 286 0018 3DD0     		beq	.L31
 287 001a 03D8     		bhi	.L32
 288 001c 0028     		cmp	r0, #0
 289 001e 00F0E280 		beq	.L25
 290 0022 D9E0     		b	.L26
 291              	.L32:
 292 0024 1228     		cmp	r0, #18
 293 0026 3ED0     		beq	.L34
 294 0028 1428     		cmp	r0, #20
 295 002a 44D0     		beq	.L35
 296 002c D4E0     		b	.L26
 297              	.L30:
 298 002e 2428     		cmp	r0, #36
 299 0030 6AD0     		beq	.L36
 300 0032 04D8     		bhi	.L37
 301 0034 2128     		cmp	r0, #33
 302 0036 56D0     		beq	.L38
 303 0038 2228     		cmp	r0, #34
 304 003a 5CD0     		beq	.L39
 305 003c CCE0     		b	.L26
 306              	.L37:
 307 003e 2828     		cmp	r0, #40
 308 0040 00F09A80 		beq	.L40
 309 0044 4128     		cmp	r0, #65
 310 0046 67D0     		beq	.L41
 311 0048 C6E0     		b	.L26
 312              	.L28:
 313 004a 8428     		cmp	r0, #132
 314 004c 00F08C80 		beq	.L42
 315 0050 0BD8     		bhi	.L43
 316 0052 4828     		cmp	r0, #72
 317 0054 00F09880 		beq	.L44
 318 0058 02D8     		bhi	.L45
 319 005a 4428     		cmp	r0, #68
 320 005c 6CD0     		beq	.L46
 321 005e BBE0     		b	.L26
 322              	.L45:
 323 0060 8128     		cmp	r0, #129
 324 0062 71D0     		beq	.L47
 325 0064 8228     		cmp	r0, #130
 326 0066 77D0     		beq	.L48
 327 0068 B6E0     		b	.L26
 328              	.L43:
 329 006a B0F5817F 		cmp	r0, #258
 330 006e 32D0     		beq	.L49
 331 0070 08D8     		bhi	.L50
 332 0072 8828     		cmp	r0, #136
ARM GAS  C:\Users\elias\AppData\Local\Temp\ccAfQ7CI.s 			page 9


 333 0074 00F0A080 		beq	.L51
 334 0078 40F20113 		movw	r3, #257
 335              	.LVL39:
 336 007c 9842     		cmp	r0, r3
 337 007e 00F09380 		beq	.L52
 338 0082 A9E0     		b	.L26
 339              	.LVL40:
 340              	.L50:
 341 0084 B0F5827F 		cmp	r0, #260
 342 0088 00F08680 		beq	.L53
 343 008c B0F5847F 		cmp	r0, #264
 344 0090 00F09A80 		beq	.L54
 345 0094 A0E0     		b	.L26
 346              	.L31:
 115:keyboard.c    ****     {
 116:keyboard.c    ****         case F1_KEY:
 117:keyboard.c    ****             snprintf(bufferTX,max,"F1 [COD:%x]\n\r",b);
 347              		.loc 1 117 0
 348 0096 0346     		mov	r3, r0
 349              	.LVL41:
 350 0098 534A     		ldr	r2, .L56
 351              	.LVL42:
 352 009a 2046     		mov	r0, r4
 353              	.LVL43:
 354 009c FFF7FEFF 		bl	snprintf
 355              	.LVL44:
 118:keyboard.c    ****             putString(bufferTX);
 356              		.loc 1 118 0
 357 00a0 2046     		mov	r0, r4
 358 00a2 A847     		blx	r5
 359              	.LVL45:
 119:keyboard.c    ****             break;
 360              		.loc 1 119 0
 361 00a4 38BD     		pop	{r3, r4, r5, pc}
 362              	.LVL46:
 363              	.L34:
 120:keyboard.c    ****         case F2_KEY:
 121:keyboard.c    ****             //PC_PutString("F2\n\r");
 122:keyboard.c    ****             snprintf(bufferTX,max,"F2 [COD:%x]\n\r",b);
 364              		.loc 1 122 0
 365 00a6 0346     		mov	r3, r0
 366              	.LVL47:
 367 00a8 504A     		ldr	r2, .L56+4
 368              	.LVL48:
 369 00aa 2046     		mov	r0, r4
 370              	.LVL49:
 371 00ac FFF7FEFF 		bl	snprintf
 372              	.LVL50:
 123:keyboard.c    ****             putString(bufferTX);
 373              		.loc 1 123 0
 374 00b0 2046     		mov	r0, r4
 375 00b2 A847     		blx	r5
 376              	.LVL51:
 124:keyboard.c    ****             break;
 377              		.loc 1 124 0
 378 00b4 38BD     		pop	{r3, r4, r5, pc}
 379              	.LVL52:
ARM GAS  C:\Users\elias\AppData\Local\Temp\ccAfQ7CI.s 			page 10


 380              	.L35:
 125:keyboard.c    ****         case HASH_KEY:
 126:keyboard.c    ****             snprintf(bufferTX,max,"# [COD:%x]\n\r",b);
 381              		.loc 1 126 0
 382 00b6 0346     		mov	r3, r0
 383              	.LVL53:
 384 00b8 4D4A     		ldr	r2, .L56+8
 385              	.LVL54:
 386 00ba 2046     		mov	r0, r4
 387              	.LVL55:
 388 00bc FFF7FEFF 		bl	snprintf
 389              	.LVL56:
 127:keyboard.c    ****             putString(bufferTX);
 390              		.loc 1 127 0
 391 00c0 2046     		mov	r0, r4
 392 00c2 A847     		blx	r5
 393              	.LVL57:
 128:keyboard.c    ****             //PC_PutString("#\n\r");
 129:keyboard.c    ****             break;
 394              		.loc 1 129 0
 395 00c4 38BD     		pop	{r3, r4, r5, pc}
 396              	.LVL58:
 397              	.L29:
 130:keyboard.c    ****         case STAR_KEY:
 131:keyboard.c    ****             snprintf(bufferTX,max,"* [COD:%x]\n\r",b);
 398              		.loc 1 131 0
 399 00c6 0346     		mov	r3, r0
 400              	.LVL59:
 401 00c8 4A4A     		ldr	r2, .L56+12
 402              	.LVL60:
 403 00ca 2046     		mov	r0, r4
 404              	.LVL61:
 405 00cc FFF7FEFF 		bl	snprintf
 406              	.LVL62:
 132:keyboard.c    ****             putString(bufferTX);
 407              		.loc 1 132 0
 408 00d0 2046     		mov	r0, r4
 409 00d2 A847     		blx	r5
 410              	.LVL63:
 133:keyboard.c    ****             //PC_PutString("*\n\r");
 134:keyboard.c    ****             break;
 411              		.loc 1 134 0
 412 00d4 38BD     		pop	{r3, r4, r5, pc}
 413              	.LVL64:
 414              	.L49:
 135:keyboard.c    ****         case KEY_0:
 136:keyboard.c    ****             snprintf(bufferTX,max,"0 [COD:%x]\n\r",b);
 415              		.loc 1 136 0
 416 00d6 0346     		mov	r3, r0
 417              	.LVL65:
 418 00d8 474A     		ldr	r2, .L56+16
 419              	.LVL66:
 420 00da 2046     		mov	r0, r4
 421              	.LVL67:
 422 00dc FFF7FEFF 		bl	snprintf
 423              	.LVL68:
 137:keyboard.c    ****             putString(bufferTX);
ARM GAS  C:\Users\elias\AppData\Local\Temp\ccAfQ7CI.s 			page 11


 424              		.loc 1 137 0
 425 00e0 2046     		mov	r0, r4
 426 00e2 A847     		blx	r5
 427              	.LVL69:
 138:keyboard.c    ****             //PC_PutString("0\n\r");
 139:keyboard.c    ****             break;
 428              		.loc 1 139 0
 429 00e4 38BD     		pop	{r3, r4, r5, pc}
 430              	.LVL70:
 431              	.L38:
 140:keyboard.c    ****         case KEY_1:
 141:keyboard.c    ****             snprintf(bufferTX,max,"1 [COD:%x]\n\r",b);
 432              		.loc 1 141 0
 433 00e6 0346     		mov	r3, r0
 434              	.LVL71:
 435 00e8 444A     		ldr	r2, .L56+20
 436              	.LVL72:
 437 00ea 2046     		mov	r0, r4
 438              	.LVL73:
 439 00ec FFF7FEFF 		bl	snprintf
 440              	.LVL74:
 142:keyboard.c    ****             putString(bufferTX);
 441              		.loc 1 142 0
 442 00f0 2046     		mov	r0, r4
 443 00f2 A847     		blx	r5
 444              	.LVL75:
 143:keyboard.c    ****             //PC_PutString("1\n\r");
 144:keyboard.c    ****             break;
 445              		.loc 1 144 0
 446 00f4 38BD     		pop	{r3, r4, r5, pc}
 447              	.LVL76:
 448              	.L39:
 145:keyboard.c    ****         case KEY_2:
 146:keyboard.c    ****             snprintf(bufferTX,max,"2 [COD:%x]\n\r",b);
 449              		.loc 1 146 0
 450 00f6 0346     		mov	r3, r0
 451              	.LVL77:
 452 00f8 414A     		ldr	r2, .L56+24
 453              	.LVL78:
 454 00fa 2046     		mov	r0, r4
 455              	.LVL79:
 456 00fc FFF7FEFF 		bl	snprintf
 457              	.LVL80:
 147:keyboard.c    ****             PC_PutString(bufferTX);
 458              		.loc 1 147 0
 459 0100 2046     		mov	r0, r4
 460 0102 FFF7FEFF 		bl	PC_PutString
 461              	.LVL81:
 148:keyboard.c    ****             //PC_PutString("2\n\r");
 149:keyboard.c    ****             break;
 462              		.loc 1 149 0
 463 0106 38BD     		pop	{r3, r4, r5, pc}
 464              	.LVL82:
 465              	.L36:
 150:keyboard.c    ****         case KEY_3:
 151:keyboard.c    ****             snprintf(bufferTX,max,"3 [COD:%x]\n\r",b);
 466              		.loc 1 151 0
ARM GAS  C:\Users\elias\AppData\Local\Temp\ccAfQ7CI.s 			page 12


 467 0108 0346     		mov	r3, r0
 468              	.LVL83:
 469 010a 3E4A     		ldr	r2, .L56+28
 470              	.LVL84:
 471 010c 2046     		mov	r0, r4
 472              	.LVL85:
 473 010e FFF7FEFF 		bl	snprintf
 474              	.LVL86:
 152:keyboard.c    ****             putString(bufferTX);
 475              		.loc 1 152 0
 476 0112 2046     		mov	r0, r4
 477 0114 A847     		blx	r5
 478              	.LVL87:
 153:keyboard.c    ****             //PC_PutString("3\n\r");
 154:keyboard.c    ****             break;
 479              		.loc 1 154 0
 480 0116 38BD     		pop	{r3, r4, r5, pc}
 481              	.LVL88:
 482              	.L41:
 155:keyboard.c    ****         case KEY_4:
 156:keyboard.c    ****             snprintf(bufferTX,max,"4 [COD:%x]\n\r",b);
 483              		.loc 1 156 0
 484 0118 0346     		mov	r3, r0
 485              	.LVL89:
 486 011a 3B4A     		ldr	r2, .L56+32
 487              	.LVL90:
 488 011c 2046     		mov	r0, r4
 489              	.LVL91:
 490 011e FFF7FEFF 		bl	snprintf
 491              	.LVL92:
 157:keyboard.c    ****             putString(bufferTX);
 492              		.loc 1 157 0
 493 0122 2046     		mov	r0, r4
 494 0124 A847     		blx	r5
 495              	.LVL93:
 158:keyboard.c    ****             //PC_PutString("4\n\r");
 159:keyboard.c    ****             break;
 496              		.loc 1 159 0
 497 0126 38BD     		pop	{r3, r4, r5, pc}
 498              	.LVL94:
 499              	.L27:
 160:keyboard.c    ****         case KEY_5:
 161:keyboard.c    ****             snprintf(bufferTX,max,"5 [COD:%x]\n\r",b);
 500              		.loc 1 161 0
 501 0128 0346     		mov	r3, r0
 502              	.LVL95:
 503 012a 384A     		ldr	r2, .L56+36
 504              	.LVL96:
 505 012c 2046     		mov	r0, r4
 506              	.LVL97:
 507 012e FFF7FEFF 		bl	snprintf
 508              	.LVL98:
 162:keyboard.c    ****             putString(bufferTX);
 509              		.loc 1 162 0
 510 0132 2046     		mov	r0, r4
 511 0134 A847     		blx	r5
 512              	.LVL99:
ARM GAS  C:\Users\elias\AppData\Local\Temp\ccAfQ7CI.s 			page 13


 163:keyboard.c    ****             //PC_PutString("5\n\r");
 164:keyboard.c    ****             break;
 513              		.loc 1 164 0
 514 0136 38BD     		pop	{r3, r4, r5, pc}
 515              	.LVL100:
 516              	.L46:
 165:keyboard.c    ****         case KEY_6:
 166:keyboard.c    ****             snprintf(bufferTX,max,"6 [COD:%x]\n\r",b);
 517              		.loc 1 166 0
 518 0138 0346     		mov	r3, r0
 519              	.LVL101:
 520 013a 354A     		ldr	r2, .L56+40
 521              	.LVL102:
 522 013c 2046     		mov	r0, r4
 523              	.LVL103:
 524 013e FFF7FEFF 		bl	snprintf
 525              	.LVL104:
 167:keyboard.c    ****             putString(bufferTX);
 526              		.loc 1 167 0
 527 0142 2046     		mov	r0, r4
 528 0144 A847     		blx	r5
 529              	.LVL105:
 168:keyboard.c    ****             //PC_PutString("6\n\r");
 169:keyboard.c    ****             break;
 530              		.loc 1 169 0
 531 0146 38BD     		pop	{r3, r4, r5, pc}
 532              	.LVL106:
 533              	.L47:
 170:keyboard.c    ****         case KEY_7:
 171:keyboard.c    ****             snprintf(bufferTX,max,"7 [COD:%x]\n\r",b);
 534              		.loc 1 171 0
 535 0148 0346     		mov	r3, r0
 536              	.LVL107:
 537 014a 324A     		ldr	r2, .L56+44
 538              	.LVL108:
 539 014c 2046     		mov	r0, r4
 540              	.LVL109:
 541 014e FFF7FEFF 		bl	snprintf
 542              	.LVL110:
 172:keyboard.c    ****             putString(bufferTX);
 543              		.loc 1 172 0
 544 0152 2046     		mov	r0, r4
 545 0154 A847     		blx	r5
 546              	.LVL111:
 173:keyboard.c    ****             //PC_PutString("7\n\r");
 174:keyboard.c    ****             break;
 547              		.loc 1 174 0
 548 0156 38BD     		pop	{r3, r4, r5, pc}
 549              	.LVL112:
 550              	.L48:
 175:keyboard.c    ****         case KEY_8:
 176:keyboard.c    ****             snprintf(bufferTX,max,"8 [COD:%x]\n\r",b);
 551              		.loc 1 176 0
 552 0158 0346     		mov	r3, r0
 553              	.LVL113:
 554 015a 2F4A     		ldr	r2, .L56+48
 555              	.LVL114:
ARM GAS  C:\Users\elias\AppData\Local\Temp\ccAfQ7CI.s 			page 14


 556 015c 2046     		mov	r0, r4
 557              	.LVL115:
 558 015e FFF7FEFF 		bl	snprintf
 559              	.LVL116:
 177:keyboard.c    ****             putString(bufferTX);
 560              		.loc 1 177 0
 561 0162 2046     		mov	r0, r4
 562 0164 A847     		blx	r5
 563              	.LVL117:
 178:keyboard.c    ****             //PC_PutString("8\n\r");
 179:keyboard.c    ****             break;
 564              		.loc 1 179 0
 565 0166 38BD     		pop	{r3, r4, r5, pc}
 566              	.LVL118:
 567              	.L42:
 180:keyboard.c    ****         case KEY_9:
 181:keyboard.c    ****             snprintf(bufferTX,max,"9 [COD:%x]\n\r",b);
 568              		.loc 1 181 0
 569 0168 0346     		mov	r3, r0
 570              	.LVL119:
 571 016a 2C4A     		ldr	r2, .L56+52
 572              	.LVL120:
 573 016c 2046     		mov	r0, r4
 574              	.LVL121:
 575 016e FFF7FEFF 		bl	snprintf
 576              	.LVL122:
 182:keyboard.c    ****             putString(bufferTX);
 577              		.loc 1 182 0
 578 0172 2046     		mov	r0, r4
 579 0174 A847     		blx	r5
 580              	.LVL123:
 183:keyboard.c    ****             //PC_PutString("9\n\r");
 184:keyboard.c    ****             break;
 581              		.loc 1 184 0
 582 0176 38BD     		pop	{r3, r4, r5, pc}
 583              	.LVL124:
 584              	.L40:
 185:keyboard.c    ****         case UP_ARROW:
 186:keyboard.c    ****             snprintf(bufferTX,max,"Up [COD:%x]\n\r",b);
 585              		.loc 1 186 0
 586 0178 0346     		mov	r3, r0
 587              	.LVL125:
 588 017a 294A     		ldr	r2, .L56+56
 589              	.LVL126:
 590 017c 2046     		mov	r0, r4
 591              	.LVL127:
 592 017e FFF7FEFF 		bl	snprintf
 593              	.LVL128:
 187:keyboard.c    ****             putString(bufferTX);
 594              		.loc 1 187 0
 595 0182 2046     		mov	r0, r4
 596 0184 A847     		blx	r5
 597              	.LVL129:
 188:keyboard.c    ****             //PC_PutString("Up\n\r");
 189:keyboard.c    ****             break;
 598              		.loc 1 189 0
 599 0186 38BD     		pop	{r3, r4, r5, pc}
ARM GAS  C:\Users\elias\AppData\Local\Temp\ccAfQ7CI.s 			page 15


 600              	.LVL130:
 601              	.L44:
 190:keyboard.c    ****         case DOWN_ARROW:
 191:keyboard.c    ****             snprintf(bufferTX,max,"Down [COD:%x]\n\r",b);
 602              		.loc 1 191 0
 603 0188 0346     		mov	r3, r0
 604              	.LVL131:
 605 018a 264A     		ldr	r2, .L56+60
 606              	.LVL132:
 607 018c 2046     		mov	r0, r4
 608              	.LVL133:
 609 018e FFF7FEFF 		bl	snprintf
 610              	.LVL134:
 192:keyboard.c    ****             putString(bufferTX);
 611              		.loc 1 192 0
 612 0192 2046     		mov	r0, r4
 613 0194 A847     		blx	r5
 614              	.LVL135:
 193:keyboard.c    ****             //PC_PutString("Down\n\r");
 194:keyboard.c    ****             break;
 615              		.loc 1 194 0
 616 0196 38BD     		pop	{r3, r4, r5, pc}
 617              	.LVL136:
 618              	.L53:
 195:keyboard.c    ****         case RIGHT_ARROW:
 196:keyboard.c    ****             snprintf(bufferTX,max,"Right [COD:%x]\n\r",b);
 619              		.loc 1 196 0
 620 0198 0346     		mov	r3, r0
 621              	.LVL137:
 622 019a 234A     		ldr	r2, .L56+64
 623              	.LVL138:
 624 019c 2046     		mov	r0, r4
 625              	.LVL139:
 626 019e FFF7FEFF 		bl	snprintf
 627              	.LVL140:
 197:keyboard.c    ****             putString(bufferTX);
 628              		.loc 1 197 0
 629 01a2 2046     		mov	r0, r4
 630 01a4 A847     		blx	r5
 631              	.LVL141:
 198:keyboard.c    ****             //PC_PutString("Right\n\r");
 199:keyboard.c    ****             break;
 632              		.loc 1 199 0
 633 01a6 38BD     		pop	{r3, r4, r5, pc}
 634              	.LVL142:
 635              	.L52:
 200:keyboard.c    ****         case LEFT_ARROW:
 201:keyboard.c    ****             snprintf(bufferTX,max,"Left [COD:%x]\n\r",b);
 636              		.loc 1 201 0
 637 01a8 0346     		mov	r3, r0
 638 01aa 204A     		ldr	r2, .L56+68
 639              	.LVL143:
 640 01ac 2046     		mov	r0, r4
 641              	.LVL144:
 642 01ae FFF7FEFF 		bl	snprintf
 643              	.LVL145:
 202:keyboard.c    ****             putString(bufferTX);
ARM GAS  C:\Users\elias\AppData\Local\Temp\ccAfQ7CI.s 			page 16


 644              		.loc 1 202 0
 645 01b2 2046     		mov	r0, r4
 646 01b4 A847     		blx	r5
 647              	.LVL146:
 203:keyboard.c    ****             //PC_PutString("Left\n\r");
 204:keyboard.c    ****             break;
 648              		.loc 1 204 0
 649 01b6 38BD     		pop	{r3, r4, r5, pc}
 650              	.LVL147:
 651              	.L51:
 205:keyboard.c    ****         case ESC_KEY:
 206:keyboard.c    ****             snprintf(bufferTX,max,"Esc [COD:%x]\n\r",b);
 652              		.loc 1 206 0
 653 01b8 0346     		mov	r3, r0
 654              	.LVL148:
 655 01ba 1D4A     		ldr	r2, .L56+72
 656              	.LVL149:
 657 01bc 2046     		mov	r0, r4
 658              	.LVL150:
 659 01be FFF7FEFF 		bl	snprintf
 660              	.LVL151:
 207:keyboard.c    ****             putString(bufferTX);
 661              		.loc 1 207 0
 662 01c2 2046     		mov	r0, r4
 663 01c4 A847     		blx	r5
 664              	.LVL152:
 208:keyboard.c    ****             //PC_PutString("Esc\n\r");
 209:keyboard.c    ****             break;
 665              		.loc 1 209 0
 666 01c6 38BD     		pop	{r3, r4, r5, pc}
 667              	.LVL153:
 668              	.L54:
 210:keyboard.c    ****         case ENTER_KEY:
 211:keyboard.c    ****             snprintf(bufferTX,max,"Enter [COD:%x]\n\r",b);
 669              		.loc 1 211 0
 670 01c8 0346     		mov	r3, r0
 671              	.LVL154:
 672 01ca 1A4A     		ldr	r2, .L56+76
 673              	.LVL155:
 674 01cc 2046     		mov	r0, r4
 675              	.LVL156:
 676 01ce FFF7FEFF 		bl	snprintf
 677              	.LVL157:
 212:keyboard.c    ****             putString(bufferTX);
 678              		.loc 1 212 0
 679 01d2 2046     		mov	r0, r4
 680 01d4 A847     		blx	r5
 681              	.LVL158:
 213:keyboard.c    ****             //PC_PutString("Enter\n\r");
 214:keyboard.c    ****             break;
 682              		.loc 1 214 0
 683 01d6 38BD     		pop	{r3, r4, r5, pc}
 684              	.LVL159:
 685              	.L26:
 215:keyboard.c    ****         case 0:
 216:keyboard.c    ****             //PC_PutString("PitoPitoDorodito\n\r");
 217:keyboard.c    ****             break;
ARM GAS  C:\Users\elias\AppData\Local\Temp\ccAfQ7CI.s 			page 17


 218:keyboard.c    ****         default:
 219:keyboard.c    ****             snprintf(bufferTX,max,"ERROR [COD:%x]\n\r",b);
 686              		.loc 1 219 0
 687 01d8 0346     		mov	r3, r0
 688 01da 174A     		ldr	r2, .L56+80
 689              	.LVL160:
 690 01dc 2046     		mov	r0, r4
 691              	.LVL161:
 692 01de FFF7FEFF 		bl	snprintf
 693              	.LVL162:
 220:keyboard.c    ****             putString(bufferTX);
 694              		.loc 1 220 0
 695 01e2 2046     		mov	r0, r4
 696 01e4 A847     		blx	r5
 697              	.LVL163:
 698              	.L25:
 699 01e6 38BD     		pop	{r3, r4, r5, pc}
 700              	.LVL164:
 701              	.L57:
 702              		.align	2
 703              	.L56:
 704 01e8 00000000 		.word	.LC0
 705 01ec 10000000 		.word	.LC1
 706 01f0 20000000 		.word	.LC2
 707 01f4 30000000 		.word	.LC3
 708 01f8 40000000 		.word	.LC4
 709 01fc 50000000 		.word	.LC5
 710 0200 60000000 		.word	.LC6
 711 0204 70000000 		.word	.LC7
 712 0208 80000000 		.word	.LC8
 713 020c 90000000 		.word	.LC9
 714 0210 A0000000 		.word	.LC10
 715 0214 B0000000 		.word	.LC11
 716 0218 C0000000 		.word	.LC12
 717 021c D0000000 		.word	.LC13
 718 0220 E0000000 		.word	.LC14
 719 0224 F0000000 		.word	.LC15
 720 0228 00010000 		.word	.LC16
 721 022c 14010000 		.word	.LC17
 722 0230 24010000 		.word	.LC18
 723 0234 34010000 		.word	.LC19
 724 0238 48010000 		.word	.LC20
 725              		.cfi_endproc
 726              	.LFE66:
 727              		.size	echoButton, .-echoButton
 728              		.section	.rodata.str1.4,"aMS",%progbits,1
 729              		.align	2
 730              	.LC0:
 731 0000 4631205B 		.ascii	"F1 [COD:%x]\012\015\000"
 731      434F443A 
 731      25785D0A 
 731      0D00
 732 000e 0000     		.space	2
 733              	.LC1:
 734 0010 4632205B 		.ascii	"F2 [COD:%x]\012\015\000"
 734      434F443A 
 734      25785D0A 
ARM GAS  C:\Users\elias\AppData\Local\Temp\ccAfQ7CI.s 			page 18


 734      0D00
 735 001e 0000     		.space	2
 736              	.LC2:
 737 0020 23205B43 		.ascii	"# [COD:%x]\012\015\000"
 737      4F443A25 
 737      785D0A0D 
 737      00
 738 002d 000000   		.space	3
 739              	.LC3:
 740 0030 2A205B43 		.ascii	"* [COD:%x]\012\015\000"
 740      4F443A25 
 740      785D0A0D 
 740      00
 741 003d 000000   		.space	3
 742              	.LC4:
 743 0040 30205B43 		.ascii	"0 [COD:%x]\012\015\000"
 743      4F443A25 
 743      785D0A0D 
 743      00
 744 004d 000000   		.space	3
 745              	.LC5:
 746 0050 31205B43 		.ascii	"1 [COD:%x]\012\015\000"
 746      4F443A25 
 746      785D0A0D 
 746      00
 747 005d 000000   		.space	3
 748              	.LC6:
 749 0060 32205B43 		.ascii	"2 [COD:%x]\012\015\000"
 749      4F443A25 
 749      785D0A0D 
 749      00
 750 006d 000000   		.space	3
 751              	.LC7:
 752 0070 33205B43 		.ascii	"3 [COD:%x]\012\015\000"
 752      4F443A25 
 752      785D0A0D 
 752      00
 753 007d 000000   		.space	3
 754              	.LC8:
 755 0080 34205B43 		.ascii	"4 [COD:%x]\012\015\000"
 755      4F443A25 
 755      785D0A0D 
 755      00
 756 008d 000000   		.space	3
 757              	.LC9:
 758 0090 35205B43 		.ascii	"5 [COD:%x]\012\015\000"
 758      4F443A25 
 758      785D0A0D 
 758      00
 759 009d 000000   		.space	3
 760              	.LC10:
 761 00a0 36205B43 		.ascii	"6 [COD:%x]\012\015\000"
 761      4F443A25 
 761      785D0A0D 
 761      00
 762 00ad 000000   		.space	3
 763              	.LC11:
ARM GAS  C:\Users\elias\AppData\Local\Temp\ccAfQ7CI.s 			page 19


 764 00b0 37205B43 		.ascii	"7 [COD:%x]\012\015\000"
 764      4F443A25 
 764      785D0A0D 
 764      00
 765 00bd 000000   		.space	3
 766              	.LC12:
 767 00c0 38205B43 		.ascii	"8 [COD:%x]\012\015\000"
 767      4F443A25 
 767      785D0A0D 
 767      00
 768 00cd 000000   		.space	3
 769              	.LC13:
 770 00d0 39205B43 		.ascii	"9 [COD:%x]\012\015\000"
 770      4F443A25 
 770      785D0A0D 
 770      00
 771 00dd 000000   		.space	3
 772              	.LC14:
 773 00e0 5570205B 		.ascii	"Up [COD:%x]\012\015\000"
 773      434F443A 
 773      25785D0A 
 773      0D00
 774 00ee 0000     		.space	2
 775              	.LC15:
 776 00f0 446F776E 		.ascii	"Down [COD:%x]\012\015\000"
 776      205B434F 
 776      443A2578 
 776      5D0A0D00 
 777              	.LC16:
 778 0100 52696768 		.ascii	"Right [COD:%x]\012\015\000"
 778      74205B43 
 778      4F443A25 
 778      785D0A0D 
 778      00
 779 0111 000000   		.space	3
 780              	.LC17:
 781 0114 4C656674 		.ascii	"Left [COD:%x]\012\015\000"
 781      205B434F 
 781      443A2578 
 781      5D0A0D00 
 782              	.LC18:
 783 0124 45736320 		.ascii	"Esc [COD:%x]\012\015\000"
 783      5B434F44 
 783      3A25785D 
 783      0A0D00
 784 0133 00       		.space	1
 785              	.LC19:
 786 0134 456E7465 		.ascii	"Enter [COD:%x]\012\015\000"
 786      72205B43 
 786      4F443A25 
 786      785D0A0D 
 786      00
 787 0145 000000   		.space	3
 788              	.LC20:
 789 0148 4552524F 		.ascii	"ERROR [COD:%x]\012\015\000"
 789      52205B43 
 789      4F443A25 
ARM GAS  C:\Users\elias\AppData\Local\Temp\ccAfQ7CI.s 			page 20


 789      785D0A0D 
 789      00
 790              		.bss
 791              		.align	1
 792              		.set	.LANCHOR0,. + 0
 793              		.type	state.6797, %object
 794              		.size	state.6797, 1
 795              	state.6797:
 796 0000 00       		.space	1
 797 0001 00       		.space	1
 798              		.type	lastInputDetected.6800, %object
 799              		.size	lastInputDetected.6800, 2
 800              	lastInputDetected.6800:
 801 0002 0000     		.space	2
 802              		.text
 803              	.Letext0:
 804              		.file 2 "c:\\program files (x86)\\cypress\\psoc creator\\4.4\\psoc creator\\import\\gnu\\arm\\5.4.
 805              		.file 3 "c:\\program files (x86)\\cypress\\psoc creator\\4.4\\psoc creator\\import\\gnu\\arm\\5.4.
 806              		.file 4 "Generated_Source\\PSoC5/cytypes.h"
 807              		.file 5 "c:\\program files (x86)\\cypress\\psoc creator\\4.4\\psoc creator\\import\\gnu\\arm\\5.4.
 808              		.file 6 "Generated_Source\\PSoC5/PC.h"
 809              		.file 7 "Generated_Source\\PSoC5/core_cm3.h"