ARM GAS  C:\Users\elias\AppData\Local\Temp\cc6jiUGp.s 			page 1


   1              		.syntax unified
   2              		.cpu cortex-m3
   3              		.fpu softvfp
   4              		.eabi_attribute 20, 1
   5              		.eabi_attribute 21, 1
   6              		.eabi_attribute 23, 3
   7              		.eabi_attribute 24, 1
   8              		.eabi_attribute 25, 1
   9              		.eabi_attribute 26, 1
  10              		.eabi_attribute 30, 1
  11              		.eabi_attribute 34, 1
  12              		.eabi_attribute 18, 4
  13              		.thumb
  14              		.syntax unified
  15              		.file	"rgb_lcd.c"
  16              		.text
  17              	.Ltext0:
  18              		.cfi_sections	.debug_frame
  19              		.section	.text.LCD_setReg,"ax",%progbits
  20              		.align	2
  21              		.global	LCD_setReg
  22              		.thumb
  23              		.thumb_func
  24              		.type	LCD_setReg, %function
  25              	LCD_setReg:
  26              	.LFB72:
  27              		.file 1 "rgb_lcd.c"
   1:rgb_lcd.c     **** #include "rgb_lcd.h"
   2:rgb_lcd.c     **** #include "project.h"
   3:rgb_lcd.c     **** 
   4:rgb_lcd.c     **** uint8_t _displayfunction;
   5:rgb_lcd.c     **** uint8_t _displaycontrol;
   6:rgb_lcd.c     **** uint8_t _displaymode;
   7:rgb_lcd.c     **** uint8_t _numlines;
   8:rgb_lcd.c     **** uint8_t _currline;
   9:rgb_lcd.c     **** 
  10:rgb_lcd.c     **** uint8_t rgb_chip_addr; // Declaración global de rgb_chip_addr
  11:rgb_lcd.c     **** 
  12:rgb_lcd.c     **** // Inicialización del LCD
  13:rgb_lcd.c     **** void LCD_begin(uint8_t cols, uint8_t rows, uint8_t charsize) {
  14:rgb_lcd.c     ****     if (rows > 1) {
  15:rgb_lcd.c     ****         _displayfunction |= LCD_2LINE;
  16:rgb_lcd.c     ****     }
  17:rgb_lcd.c     ****     _numlines = rows;
  18:rgb_lcd.c     ****     _currline = 0;
  19:rgb_lcd.c     **** 
  20:rgb_lcd.c     ****     I2C_LCD_Start();
  21:rgb_lcd.c     **** 
  22:rgb_lcd.c     ****     CyDelay(50);
  23:rgb_lcd.c     **** 
  24:rgb_lcd.c     ****     LCD_command(LCD_FUNCTIONSET | _displayfunction);
  25:rgb_lcd.c     ****     CyDelay(5);
  26:rgb_lcd.c     ****     LCD_command(LCD_FUNCTIONSET | _displayfunction);
  27:rgb_lcd.c     ****     CyDelay(1);
  28:rgb_lcd.c     ****     LCD_command(LCD_FUNCTIONSET | _displayfunction);
  29:rgb_lcd.c     **** 
  30:rgb_lcd.c     ****     _displaycontrol = LCD_DISPLAYON | LCD_CURSOROFF | LCD_BLINKOFF;
ARM GAS  C:\Users\elias\AppData\Local\Temp\cc6jiUGp.s 			page 2


  31:rgb_lcd.c     ****     LCD_display();
  32:rgb_lcd.c     **** 
  33:rgb_lcd.c     ****     LCD_clear();
  34:rgb_lcd.c     ****     _displaymode = LCD_ENTRYLEFT | LCD_ENTRYSHIFTDECREMENT;
  35:rgb_lcd.c     ****     LCD_command(LCD_ENTRYMODESET | _displaymode);
  36:rgb_lcd.c     **** 
  37:rgb_lcd.c     ****     LCD_setReg(0x00, 0x00);
  38:rgb_lcd.c     ****     LCD_setReg(0x01, 0x00);
  39:rgb_lcd.c     ****     LCD_setReg(0x08, 0xAA);
  40:rgb_lcd.c     **** }
  41:rgb_lcd.c     **** 
  42:rgb_lcd.c     **** // Enviar comando al LCD
  43:rgb_lcd.c     **** void LCD_command(uint8_t value) {
  44:rgb_lcd.c     ****     uint8_t data[2] = {0x80, value};
  45:rgb_lcd.c     ****     i2c_send_byteS(data, 2);
  46:rgb_lcd.c     **** }
  47:rgb_lcd.c     **** 
  48:rgb_lcd.c     **** // Escribir un valor en el LCD
  49:rgb_lcd.c     **** void LCD_write(uint8_t value) {
  50:rgb_lcd.c     ****     uint8_t data[2] = {0x40, value};
  51:rgb_lcd.c     ****     i2c_send_byteS(data, 2);
  52:rgb_lcd.c     **** }
  53:rgb_lcd.c     **** 
  54:rgb_lcd.c     **** // Limpiar la pantalla del LCD
  55:rgb_lcd.c     **** void LCD_clear() {
  56:rgb_lcd.c     ****     LCD_command(LCD_CLEARDISPLAY);
  57:rgb_lcd.c     ****     CyDelay(2);
  58:rgb_lcd.c     **** }
  59:rgb_lcd.c     **** 
  60:rgb_lcd.c     **** // Configurar el cursor
  61:rgb_lcd.c     **** void LCD_setCursor(uint8_t col, uint8_t row) {
  62:rgb_lcd.c     ****     col = (row == 0 ? col | 0x80 : col | 0xc0);
  63:rgb_lcd.c     ****     uint8_t data[2] = {0x80, col};
  64:rgb_lcd.c     ****     i2c_send_byteS(data, 2);
  65:rgb_lcd.c     **** }
  66:rgb_lcd.c     **** 
  67:rgb_lcd.c     **** // Activar el display
  68:rgb_lcd.c     **** void LCD_display() {
  69:rgb_lcd.c     ****     _displaycontrol |= LCD_DISPLAYON;
  70:rgb_lcd.c     ****     LCD_command(LCD_DISPLAYCONTROL | _displaycontrol);
  71:rgb_lcd.c     **** }
  72:rgb_lcd.c     **** 
  73:rgb_lcd.c     **** // Apagar el display
  74:rgb_lcd.c     **** void LCD_noDisplay() {
  75:rgb_lcd.c     ****     _displaycontrol &= ~LCD_DISPLAYON;
  76:rgb_lcd.c     ****     LCD_command(LCD_DISPLAYCONTROL | _displaycontrol);
  77:rgb_lcd.c     **** }
  78:rgb_lcd.c     **** 
  79:rgb_lcd.c     **** // Imprimir texto en el LCD
  80:rgb_lcd.c     **** void LCD_print(char* data, uint8_t size) {
  81:rgb_lcd.c     ****     for (uint8_t i = 0; i < size; i++) {
  82:rgb_lcd.c     ****         LCD_write(data[i]);
  83:rgb_lcd.c     ****     }
  84:rgb_lcd.c     **** }
  85:rgb_lcd.c     **** 
  86:rgb_lcd.c     **** // Controlar el color del backlight RGB
  87:rgb_lcd.c     **** void LCD_setRGB(unsigned char r, unsigned char g, unsigned char b) {
ARM GAS  C:\Users\elias\AppData\Local\Temp\cc6jiUGp.s 			page 3


  88:rgb_lcd.c     ****     LCD_setReg(REG_RED, r);
  89:rgb_lcd.c     ****     LCD_setReg(REG_GREEN, g);
  90:rgb_lcd.c     ****     LCD_setReg(REG_BLUE, b);
  91:rgb_lcd.c     **** }
  92:rgb_lcd.c     **** 
  93:rgb_lcd.c     **** // Enviar datos al backlight
  94:rgb_lcd.c     **** void LCD_setReg(unsigned char addr, unsigned char dta) {
  28              		.loc 1 94 0
  29              		.cfi_startproc
  30              		@ args = 0, pretend = 0, frame = 8
  31              		@ frame_needed = 0, uses_anonymous_args = 0
  32              	.LVL0:
  33 0000 00B5     		push	{lr}
  34              		.cfi_def_cfa_offset 4
  35              		.cfi_offset 14, -4
  36 0002 83B0     		sub	sp, sp, #12
  37              		.cfi_def_cfa_offset 16
  95:rgb_lcd.c     ****     uint8_t buffer[2] = {addr, dta};
  38              		.loc 1 95 0
  39 0004 8DF80400 		strb	r0, [sp, #4]
  40 0008 8DF80510 		strb	r1, [sp, #5]
  96:rgb_lcd.c     ****     I2C_LCD_MasterWriteBuf(I2C_RGB_ADDR >> 1, buffer, 2, I2C_LCD_MODE_COMPLETE_XFER);
  41              		.loc 1 96 0
  42 000c 0023     		movs	r3, #0
  43 000e 0222     		movs	r2, #2
  44 0010 01A9     		add	r1, sp, #4
  45              	.LVL1:
  46 0012 6220     		movs	r0, #98
  47              	.LVL2:
  48 0014 FFF7FEFF 		bl	I2C_LCD_MasterWriteBuf
  49              	.LVL3:
  50              	.L2:
  97:rgb_lcd.c     ****     while (I2C_LCD_MasterStatus() & I2C_LCD_MSTAT_XFER_INP);
  51              		.loc 1 97 0 discriminator 1
  52 0018 FFF7FEFF 		bl	I2C_LCD_MasterStatus
  53              	.LVL4:
  54 001c 10F0040F 		tst	r0, #4
  55 0020 FAD1     		bne	.L2
  98:rgb_lcd.c     **** }
  56              		.loc 1 98 0
  57 0022 03B0     		add	sp, sp, #12
  58              		.cfi_def_cfa_offset 4
  59              		@ sp needed
  60 0024 5DF804FB 		ldr	pc, [sp], #4
  61              		.cfi_endproc
  62              	.LFE72:
  63              		.size	LCD_setReg, .-LCD_setReg
  64              		.section	.text.LCD_setRGB,"ax",%progbits
  65              		.align	2
  66              		.global	LCD_setRGB
  67              		.thumb
  68              		.thumb_func
  69              		.type	LCD_setRGB, %function
  70              	LCD_setRGB:
  71              	.LFB71:
  87:rgb_lcd.c     ****     LCD_setReg(REG_RED, r);
  72              		.loc 1 87 0
ARM GAS  C:\Users\elias\AppData\Local\Temp\cc6jiUGp.s 			page 4


  73              		.cfi_startproc
  74              		@ args = 0, pretend = 0, frame = 0
  75              		@ frame_needed = 0, uses_anonymous_args = 0
  76              	.LVL5:
  77 0000 38B5     		push	{r3, r4, r5, lr}
  78              		.cfi_def_cfa_offset 16
  79              		.cfi_offset 3, -16
  80              		.cfi_offset 4, -12
  81              		.cfi_offset 5, -8
  82              		.cfi_offset 14, -4
  83 0002 0D46     		mov	r5, r1
  84 0004 1446     		mov	r4, r2
  88:rgb_lcd.c     ****     LCD_setReg(REG_GREEN, g);
  85              		.loc 1 88 0
  86 0006 0146     		mov	r1, r0
  87              	.LVL6:
  88 0008 0420     		movs	r0, #4
  89              	.LVL7:
  90 000a FFF7FEFF 		bl	LCD_setReg
  91              	.LVL8:
  89:rgb_lcd.c     ****     LCD_setReg(REG_BLUE, b);
  92              		.loc 1 89 0
  93 000e 2946     		mov	r1, r5
  94 0010 0320     		movs	r0, #3
  95 0012 FFF7FEFF 		bl	LCD_setReg
  96              	.LVL9:
  90:rgb_lcd.c     **** }
  97              		.loc 1 90 0
  98 0016 2146     		mov	r1, r4
  99 0018 0220     		movs	r0, #2
 100 001a FFF7FEFF 		bl	LCD_setReg
 101              	.LVL10:
 102 001e 38BD     		pop	{r3, r4, r5, pc}
 103              		.cfi_endproc
 104              	.LFE71:
 105              		.size	LCD_setRGB, .-LCD_setRGB
 106              		.section	.text.i2c_send_byteS,"ax",%progbits
 107              		.align	2
 108              		.global	i2c_send_byteS
 109              		.thumb
 110              		.thumb_func
 111              		.type	i2c_send_byteS, %function
 112              	i2c_send_byteS:
 113              	.LFB73:
  99:rgb_lcd.c     **** 
 100:rgb_lcd.c     **** // Enviar datos a través de I2C
 101:rgb_lcd.c     **** void i2c_send_byteS(unsigned char* dta, unsigned char len) {
 114              		.loc 1 101 0
 115              		.cfi_startproc
 116              		@ args = 0, pretend = 0, frame = 0
 117              		@ frame_needed = 0, uses_anonymous_args = 0
 118              	.LVL11:
 119 0000 08B5     		push	{r3, lr}
 120              		.cfi_def_cfa_offset 8
 121              		.cfi_offset 3, -8
 122              		.cfi_offset 14, -4
 102:rgb_lcd.c     ****     I2C_LCD_MasterWriteBuf(I2C_LCD_ADDR >> 1, dta, len, I2C_LCD_MODE_COMPLETE_XFER);
ARM GAS  C:\Users\elias\AppData\Local\Temp\cc6jiUGp.s 			page 5


 123              		.loc 1 102 0
 124 0002 0023     		movs	r3, #0
 125 0004 0A46     		mov	r2, r1
 126 0006 0146     		mov	r1, r0
 127              	.LVL12:
 128 0008 3E20     		movs	r0, #62
 129              	.LVL13:
 130 000a FFF7FEFF 		bl	I2C_LCD_MasterWriteBuf
 131              	.LVL14:
 132              	.L7:
 103:rgb_lcd.c     ****     while (I2C_LCD_MasterStatus() & I2C_LCD_MSTAT_XFER_INP);
 133              		.loc 1 103 0 discriminator 1
 134 000e FFF7FEFF 		bl	I2C_LCD_MasterStatus
 135              	.LVL15:
 136 0012 10F0040F 		tst	r0, #4
 137 0016 FAD1     		bne	.L7
 104:rgb_lcd.c     **** }
 138              		.loc 1 104 0
 139 0018 08BD     		pop	{r3, pc}
 140              		.cfi_endproc
 141              	.LFE73:
 142              		.size	i2c_send_byteS, .-i2c_send_byteS
 143 001a 00BF     		.section	.text.LCD_command,"ax",%progbits
 144              		.align	2
 145              		.global	LCD_command
 146              		.thumb
 147              		.thumb_func
 148              		.type	LCD_command, %function
 149              	LCD_command:
 150              	.LFB64:
  43:rgb_lcd.c     ****     uint8_t data[2] = {0x80, value};
 151              		.loc 1 43 0
 152              		.cfi_startproc
 153              		@ args = 0, pretend = 0, frame = 8
 154              		@ frame_needed = 0, uses_anonymous_args = 0
 155              	.LVL16:
 156 0000 00B5     		push	{lr}
 157              		.cfi_def_cfa_offset 4
 158              		.cfi_offset 14, -4
 159 0002 83B0     		sub	sp, sp, #12
 160              		.cfi_def_cfa_offset 16
  44:rgb_lcd.c     ****     i2c_send_byteS(data, 2);
 161              		.loc 1 44 0
 162 0004 8023     		movs	r3, #128
 163 0006 8DF80430 		strb	r3, [sp, #4]
 164 000a 8DF80500 		strb	r0, [sp, #5]
  45:rgb_lcd.c     **** }
 165              		.loc 1 45 0
 166 000e 0221     		movs	r1, #2
 167 0010 01A8     		add	r0, sp, #4
 168              	.LVL17:
 169 0012 FFF7FEFF 		bl	i2c_send_byteS
 170              	.LVL18:
  46:rgb_lcd.c     **** 
 171              		.loc 1 46 0
 172 0016 03B0     		add	sp, sp, #12
 173              		.cfi_def_cfa_offset 4
ARM GAS  C:\Users\elias\AppData\Local\Temp\cc6jiUGp.s 			page 6


 174              		@ sp needed
 175 0018 5DF804FB 		ldr	pc, [sp], #4
 176              		.cfi_endproc
 177              	.LFE64:
 178              		.size	LCD_command, .-LCD_command
 179              		.section	.text.LCD_clear,"ax",%progbits
 180              		.align	2
 181              		.global	LCD_clear
 182              		.thumb
 183              		.thumb_func
 184              		.type	LCD_clear, %function
 185              	LCD_clear:
 186              	.LFB66:
  55:rgb_lcd.c     ****     LCD_command(LCD_CLEARDISPLAY);
 187              		.loc 1 55 0
 188              		.cfi_startproc
 189              		@ args = 0, pretend = 0, frame = 0
 190              		@ frame_needed = 0, uses_anonymous_args = 0
 191 0000 08B5     		push	{r3, lr}
 192              		.cfi_def_cfa_offset 8
 193              		.cfi_offset 3, -8
 194              		.cfi_offset 14, -4
  56:rgb_lcd.c     ****     CyDelay(2);
 195              		.loc 1 56 0
 196 0002 0120     		movs	r0, #1
 197 0004 FFF7FEFF 		bl	LCD_command
 198              	.LVL19:
  57:rgb_lcd.c     **** }
 199              		.loc 1 57 0
 200 0008 0220     		movs	r0, #2
 201 000a FFF7FEFF 		bl	CyDelay
 202              	.LVL20:
 203 000e 08BD     		pop	{r3, pc}
 204              		.cfi_endproc
 205              	.LFE66:
 206              		.size	LCD_clear, .-LCD_clear
 207              		.section	.text.LCD_display,"ax",%progbits
 208              		.align	2
 209              		.global	LCD_display
 210              		.thumb
 211              		.thumb_func
 212              		.type	LCD_display, %function
 213              	LCD_display:
 214              	.LFB68:
  68:rgb_lcd.c     ****     _displaycontrol |= LCD_DISPLAYON;
 215              		.loc 1 68 0
 216              		.cfi_startproc
 217              		@ args = 0, pretend = 0, frame = 0
 218              		@ frame_needed = 0, uses_anonymous_args = 0
 219 0000 08B5     		push	{r3, lr}
 220              		.cfi_def_cfa_offset 8
 221              		.cfi_offset 3, -8
 222              		.cfi_offset 14, -4
  69:rgb_lcd.c     ****     LCD_command(LCD_DISPLAYCONTROL | _displaycontrol);
 223              		.loc 1 69 0
 224 0002 054B     		ldr	r3, .L15
 225 0004 1878     		ldrb	r0, [r3]	@ zero_extendqisi2
ARM GAS  C:\Users\elias\AppData\Local\Temp\cc6jiUGp.s 			page 7


 226 0006 40F00400 		orr	r0, r0, #4
 227 000a 1870     		strb	r0, [r3]
  70:rgb_lcd.c     **** }
 228              		.loc 1 70 0
 229 000c 40F00800 		orr	r0, r0, #8
 230 0010 FFF7FEFF 		bl	LCD_command
 231              	.LVL21:
 232 0014 08BD     		pop	{r3, pc}
 233              	.L16:
 234 0016 00BF     		.align	2
 235              	.L15:
 236 0018 00000000 		.word	_displaycontrol
 237              		.cfi_endproc
 238              	.LFE68:
 239              		.size	LCD_display, .-LCD_display
 240              		.section	.text.LCD_begin,"ax",%progbits
 241              		.align	2
 242              		.global	LCD_begin
 243              		.thumb
 244              		.thumb_func
 245              		.type	LCD_begin, %function
 246              	LCD_begin:
 247              	.LFB63:
  13:rgb_lcd.c     ****     if (rows > 1) {
 248              		.loc 1 13 0
 249              		.cfi_startproc
 250              		@ args = 0, pretend = 0, frame = 0
 251              		@ frame_needed = 0, uses_anonymous_args = 0
 252              	.LVL22:
 253 0000 38B5     		push	{r3, r4, r5, lr}
 254              		.cfi_def_cfa_offset 16
 255              		.cfi_offset 3, -16
 256              		.cfi_offset 4, -12
 257              		.cfi_offset 5, -8
 258              		.cfi_offset 14, -4
  14:rgb_lcd.c     ****         _displayfunction |= LCD_2LINE;
 259              		.loc 1 14 0
 260 0002 0129     		cmp	r1, #1
 261 0004 04D9     		bls	.L18
  15:rgb_lcd.c     ****     }
 262              		.loc 1 15 0
 263 0006 1F4A     		ldr	r2, .L20
 264              	.LVL23:
 265 0008 1378     		ldrb	r3, [r2]	@ zero_extendqisi2
 266 000a 43F00803 		orr	r3, r3, #8
 267 000e 1370     		strb	r3, [r2]
 268              	.L18:
  17:rgb_lcd.c     ****     _currline = 0;
 269              		.loc 1 17 0
 270 0010 1D4B     		ldr	r3, .L20+4
 271 0012 1970     		strb	r1, [r3]
  18:rgb_lcd.c     **** 
 272              		.loc 1 18 0
 273 0014 0024     		movs	r4, #0
 274 0016 1D4B     		ldr	r3, .L20+8
 275 0018 1C70     		strb	r4, [r3]
  20:rgb_lcd.c     **** 
ARM GAS  C:\Users\elias\AppData\Local\Temp\cc6jiUGp.s 			page 8


 276              		.loc 1 20 0
 277 001a FFF7FEFF 		bl	I2C_LCD_Start
 278              	.LVL24:
  22:rgb_lcd.c     **** 
 279              		.loc 1 22 0
 280 001e 3220     		movs	r0, #50
 281 0020 FFF7FEFF 		bl	CyDelay
 282              	.LVL25:
  24:rgb_lcd.c     ****     CyDelay(5);
 283              		.loc 1 24 0
 284 0024 174D     		ldr	r5, .L20
 285 0026 2878     		ldrb	r0, [r5]	@ zero_extendqisi2
 286 0028 40F02000 		orr	r0, r0, #32
 287 002c FFF7FEFF 		bl	LCD_command
 288              	.LVL26:
  25:rgb_lcd.c     ****     LCD_command(LCD_FUNCTIONSET | _displayfunction);
 289              		.loc 1 25 0
 290 0030 0520     		movs	r0, #5
 291 0032 FFF7FEFF 		bl	CyDelay
 292              	.LVL27:
  26:rgb_lcd.c     ****     CyDelay(1);
 293              		.loc 1 26 0
 294 0036 2878     		ldrb	r0, [r5]	@ zero_extendqisi2
 295 0038 40F02000 		orr	r0, r0, #32
 296 003c FFF7FEFF 		bl	LCD_command
 297              	.LVL28:
  27:rgb_lcd.c     ****     LCD_command(LCD_FUNCTIONSET | _displayfunction);
 298              		.loc 1 27 0
 299 0040 0120     		movs	r0, #1
 300 0042 FFF7FEFF 		bl	CyDelay
 301              	.LVL29:
  28:rgb_lcd.c     **** 
 302              		.loc 1 28 0
 303 0046 2878     		ldrb	r0, [r5]	@ zero_extendqisi2
 304 0048 40F02000 		orr	r0, r0, #32
 305 004c FFF7FEFF 		bl	LCD_command
 306              	.LVL30:
  30:rgb_lcd.c     ****     LCD_display();
 307              		.loc 1 30 0
 308 0050 0422     		movs	r2, #4
 309 0052 0F4B     		ldr	r3, .L20+12
 310 0054 1A70     		strb	r2, [r3]
  31:rgb_lcd.c     **** 
 311              		.loc 1 31 0
 312 0056 FFF7FEFF 		bl	LCD_display
 313              	.LVL31:
  33:rgb_lcd.c     ****     _displaymode = LCD_ENTRYLEFT | LCD_ENTRYSHIFTDECREMENT;
 314              		.loc 1 33 0
 315 005a FFF7FEFF 		bl	LCD_clear
 316              	.LVL32:
  34:rgb_lcd.c     ****     LCD_command(LCD_ENTRYMODESET | _displaymode);
 317              		.loc 1 34 0
 318 005e 0222     		movs	r2, #2
 319 0060 0C4B     		ldr	r3, .L20+16
 320 0062 1A70     		strb	r2, [r3]
  35:rgb_lcd.c     **** 
 321              		.loc 1 35 0
ARM GAS  C:\Users\elias\AppData\Local\Temp\cc6jiUGp.s 			page 9


 322 0064 0620     		movs	r0, #6
 323 0066 FFF7FEFF 		bl	LCD_command
 324              	.LVL33:
  37:rgb_lcd.c     ****     LCD_setReg(0x01, 0x00);
 325              		.loc 1 37 0
 326 006a 2146     		mov	r1, r4
 327 006c 2046     		mov	r0, r4
 328 006e FFF7FEFF 		bl	LCD_setReg
 329              	.LVL34:
  38:rgb_lcd.c     ****     LCD_setReg(0x08, 0xAA);
 330              		.loc 1 38 0
 331 0072 2146     		mov	r1, r4
 332 0074 0120     		movs	r0, #1
 333 0076 FFF7FEFF 		bl	LCD_setReg
 334              	.LVL35:
  39:rgb_lcd.c     **** }
 335              		.loc 1 39 0
 336 007a AA21     		movs	r1, #170
 337 007c 0820     		movs	r0, #8
 338 007e FFF7FEFF 		bl	LCD_setReg
 339              	.LVL36:
 340 0082 38BD     		pop	{r3, r4, r5, pc}
 341              	.L21:
 342              		.align	2
 343              	.L20:
 344 0084 00000000 		.word	_displayfunction
 345 0088 00000000 		.word	_numlines
 346 008c 00000000 		.word	_currline
 347 0090 00000000 		.word	_displaycontrol
 348 0094 00000000 		.word	_displaymode
 349              		.cfi_endproc
 350              	.LFE63:
 351              		.size	LCD_begin, .-LCD_begin
 352              		.section	.text.LCD_noDisplay,"ax",%progbits
 353              		.align	2
 354              		.global	LCD_noDisplay
 355              		.thumb
 356              		.thumb_func
 357              		.type	LCD_noDisplay, %function
 358              	LCD_noDisplay:
 359              	.LFB69:
  74:rgb_lcd.c     ****     _displaycontrol &= ~LCD_DISPLAYON;
 360              		.loc 1 74 0
 361              		.cfi_startproc
 362              		@ args = 0, pretend = 0, frame = 0
 363              		@ frame_needed = 0, uses_anonymous_args = 0
 364 0000 08B5     		push	{r3, lr}
 365              		.cfi_def_cfa_offset 8
 366              		.cfi_offset 3, -8
 367              		.cfi_offset 14, -4
  75:rgb_lcd.c     ****     LCD_command(LCD_DISPLAYCONTROL | _displaycontrol);
 368              		.loc 1 75 0
 369 0002 054B     		ldr	r3, .L24
 370 0004 1878     		ldrb	r0, [r3]	@ zero_extendqisi2
 371 0006 00F0FB00 		and	r0, r0, #251
 372 000a 1870     		strb	r0, [r3]
  76:rgb_lcd.c     **** }
ARM GAS  C:\Users\elias\AppData\Local\Temp\cc6jiUGp.s 			page 10


 373              		.loc 1 76 0
 374 000c 40F00800 		orr	r0, r0, #8
 375 0010 FFF7FEFF 		bl	LCD_command
 376              	.LVL37:
 377 0014 08BD     		pop	{r3, pc}
 378              	.L25:
 379 0016 00BF     		.align	2
 380              	.L24:
 381 0018 00000000 		.word	_displaycontrol
 382              		.cfi_endproc
 383              	.LFE69:
 384              		.size	LCD_noDisplay, .-LCD_noDisplay
 385              		.section	.text.LCD_write,"ax",%progbits
 386              		.align	2
 387              		.global	LCD_write
 388              		.thumb
 389              		.thumb_func
 390              		.type	LCD_write, %function
 391              	LCD_write:
 392              	.LFB65:
  49:rgb_lcd.c     ****     uint8_t data[2] = {0x40, value};
 393              		.loc 1 49 0
 394              		.cfi_startproc
 395              		@ args = 0, pretend = 0, frame = 8
 396              		@ frame_needed = 0, uses_anonymous_args = 0
 397              	.LVL38:
 398 0000 00B5     		push	{lr}
 399              		.cfi_def_cfa_offset 4
 400              		.cfi_offset 14, -4
 401 0002 83B0     		sub	sp, sp, #12
 402              		.cfi_def_cfa_offset 16
  50:rgb_lcd.c     ****     i2c_send_byteS(data, 2);
 403              		.loc 1 50 0
 404 0004 4023     		movs	r3, #64
 405 0006 8DF80430 		strb	r3, [sp, #4]
 406 000a 8DF80500 		strb	r0, [sp, #5]
  51:rgb_lcd.c     **** }
 407              		.loc 1 51 0
 408 000e 0221     		movs	r1, #2
 409 0010 01A8     		add	r0, sp, #4
 410              	.LVL39:
 411 0012 FFF7FEFF 		bl	i2c_send_byteS
 412              	.LVL40:
  52:rgb_lcd.c     **** 
 413              		.loc 1 52 0
 414 0016 03B0     		add	sp, sp, #12
 415              		.cfi_def_cfa_offset 4
 416              		@ sp needed
 417 0018 5DF804FB 		ldr	pc, [sp], #4
 418              		.cfi_endproc
 419              	.LFE65:
 420              		.size	LCD_write, .-LCD_write
 421              		.section	.text.LCD_print,"ax",%progbits
 422              		.align	2
 423              		.global	LCD_print
 424              		.thumb
 425              		.thumb_func
ARM GAS  C:\Users\elias\AppData\Local\Temp\cc6jiUGp.s 			page 11


 426              		.type	LCD_print, %function
 427              	LCD_print:
 428              	.LFB70:
  80:rgb_lcd.c     ****     for (uint8_t i = 0; i < size; i++) {
 429              		.loc 1 80 0
 430              		.cfi_startproc
 431              		@ args = 0, pretend = 0, frame = 0
 432              		@ frame_needed = 0, uses_anonymous_args = 0
 433              	.LVL41:
 434 0000 70B5     		push	{r4, r5, r6, lr}
 435              		.cfi_def_cfa_offset 16
 436              		.cfi_offset 4, -16
 437              		.cfi_offset 5, -12
 438              		.cfi_offset 6, -8
 439              		.cfi_offset 14, -4
 440 0002 0646     		mov	r6, r0
 441 0004 0D46     		mov	r5, r1
 442              	.LVL42:
 443              	.LBB2:
  81:rgb_lcd.c     ****         LCD_write(data[i]);
 444              		.loc 1 81 0
 445 0006 0024     		movs	r4, #0
 446 0008 04E0     		b	.L29
 447              	.LVL43:
 448              	.L30:
  82:rgb_lcd.c     ****     }
 449              		.loc 1 82 0 discriminator 3
 450 000a 305D     		ldrb	r0, [r6, r4]	@ zero_extendqisi2
 451 000c FFF7FEFF 		bl	LCD_write
 452              	.LVL44:
  81:rgb_lcd.c     ****         LCD_write(data[i]);
 453              		.loc 1 81 0 discriminator 3
 454 0010 0134     		adds	r4, r4, #1
 455              	.LVL45:
 456 0012 E4B2     		uxtb	r4, r4
 457              	.LVL46:
 458              	.L29:
  81:rgb_lcd.c     ****         LCD_write(data[i]);
 459              		.loc 1 81 0 is_stmt 0 discriminator 1
 460 0014 AC42     		cmp	r4, r5
 461 0016 F8D3     		bcc	.L30
 462              	.LBE2:
  84:rgb_lcd.c     **** 
 463              		.loc 1 84 0 is_stmt 1
 464 0018 70BD     		pop	{r4, r5, r6, pc}
 465              		.cfi_endproc
 466              	.LFE70:
 467              		.size	LCD_print, .-LCD_print
 468 001a 00BF     		.section	.text.LCD_setCursor,"ax",%progbits
 469              		.align	2
 470              		.global	LCD_setCursor
 471              		.thumb
 472              		.thumb_func
 473              		.type	LCD_setCursor, %function
 474              	LCD_setCursor:
 475              	.LFB67:
  61:rgb_lcd.c     ****     col = (row == 0 ? col | 0x80 : col | 0xc0);
ARM GAS  C:\Users\elias\AppData\Local\Temp\cc6jiUGp.s 			page 12


 476              		.loc 1 61 0
 477              		.cfi_startproc
 478              		@ args = 0, pretend = 0, frame = 8
 479              		@ frame_needed = 0, uses_anonymous_args = 0
 480              	.LVL47:
 481 0000 00B5     		push	{lr}
 482              		.cfi_def_cfa_offset 4
 483              		.cfi_offset 14, -4
 484 0002 83B0     		sub	sp, sp, #12
 485              		.cfi_def_cfa_offset 16
  62:rgb_lcd.c     ****     uint8_t data[2] = {0x80, col};
 486              		.loc 1 62 0
 487 0004 11B9     		cbnz	r1, .L33
  62:rgb_lcd.c     ****     uint8_t data[2] = {0x80, col};
 488              		.loc 1 62 0 is_stmt 0 discriminator 1
 489 0006 40F08000 		orr	r0, r0, #128
 490              	.LVL48:
 491 000a 01E0     		b	.L34
 492              	.LVL49:
 493              	.L33:
  62:rgb_lcd.c     ****     uint8_t data[2] = {0x80, col};
 494              		.loc 1 62 0 discriminator 2
 495 000c 40F0C000 		orr	r0, r0, #192
 496              	.LVL50:
 497              	.L34:
  63:rgb_lcd.c     ****     i2c_send_byteS(data, 2);
 498              		.loc 1 63 0 is_stmt 1 discriminator 4
 499 0010 8023     		movs	r3, #128
 500 0012 8DF80430 		strb	r3, [sp, #4]
 501 0016 8DF80500 		strb	r0, [sp, #5]
  64:rgb_lcd.c     **** }
 502              		.loc 1 64 0 discriminator 4
 503 001a 0221     		movs	r1, #2
 504              	.LVL51:
 505 001c 01A8     		add	r0, sp, #4
 506              	.LVL52:
 507 001e FFF7FEFF 		bl	i2c_send_byteS
 508              	.LVL53:
  65:rgb_lcd.c     **** 
 509              		.loc 1 65 0 discriminator 4
 510 0022 03B0     		add	sp, sp, #12
 511              		.cfi_def_cfa_offset 4
 512              		@ sp needed
 513 0024 5DF804FB 		ldr	pc, [sp], #4
 514              		.cfi_endproc
 515              	.LFE67:
 516              		.size	LCD_setCursor, .-LCD_setCursor
 517              		.section	.text.LCD_createChar,"ax",%progbits
 518              		.align	2
 519              		.global	LCD_createChar
 520              		.thumb
 521              		.thumb_func
 522              		.type	LCD_createChar, %function
 523              	LCD_createChar:
 524              	.LFB74:
 105:rgb_lcd.c     **** 
 106:rgb_lcd.c     **** void LCD_createChar(uint8_t location, uint8_t charmap[]) {
ARM GAS  C:\Users\elias\AppData\Local\Temp\cc6jiUGp.s 			page 13


 525              		.loc 1 106 0
 526              		.cfi_startproc
 527              		@ args = 0, pretend = 0, frame = 16
 528              		@ frame_needed = 0, uses_anonymous_args = 0
 529              	.LVL54:
 530 0000 10B5     		push	{r4, lr}
 531              		.cfi_def_cfa_offset 8
 532              		.cfi_offset 4, -8
 533              		.cfi_offset 14, -4
 534 0002 84B0     		sub	sp, sp, #16
 535              		.cfi_def_cfa_offset 24
 536 0004 0C46     		mov	r4, r1
 107:rgb_lcd.c     ****     location &= 0x7; // Solo tenemos 8 ubicaciones 0-7 en CGRAM
 537              		.loc 1 107 0
 538 0006 00F00700 		and	r0, r0, #7
 539              	.LVL55:
 108:rgb_lcd.c     ****     LCD_command(LCD_SETCGRAMADDR | (location << 3));
 540              		.loc 1 108 0
 541 000a C000     		lsls	r0, r0, #3
 542              	.LVL56:
 543 000c 40F04000 		orr	r0, r0, #64
 544 0010 FFF7FEFF 		bl	LCD_command
 545              	.LVL57:
 109:rgb_lcd.c     **** 
 110:rgb_lcd.c     ****     uint8_t data[9];
 111:rgb_lcd.c     ****     data[0] = 0x40;  // Definir la dirección para los datos
 546              		.loc 1 111 0
 547 0014 4023     		movs	r3, #64
 548 0016 8DF80430 		strb	r3, [sp, #4]
 549              	.LVL58:
 550              	.LBB3:
 112:rgb_lcd.c     ****     for (int i = 0; i < 8; i++) {
 551              		.loc 1 112 0
 552 001a 0023     		movs	r3, #0
 553 001c 06E0     		b	.L37
 554              	.LVL59:
 555              	.L38:
 113:rgb_lcd.c     ****         data[i + 1] = charmap[i];
 556              		.loc 1 113 0 discriminator 3
 557 001e 5A1C     		adds	r2, r3, #1
 558 0020 E15C     		ldrb	r1, [r4, r3]	@ zero_extendqisi2
 559 0022 04AB     		add	r3, sp, #16
 560              	.LVL60:
 561 0024 1344     		add	r3, r3, r2
 562 0026 03F80C1C 		strb	r1, [r3, #-12]
 563              	.LVL61:
 112:rgb_lcd.c     ****     for (int i = 0; i < 8; i++) {
 564              		.loc 1 112 0 discriminator 3
 565 002a 1346     		mov	r3, r2
 566              	.LVL62:
 567              	.L37:
 112:rgb_lcd.c     ****     for (int i = 0; i < 8; i++) {
 568              		.loc 1 112 0 is_stmt 0 discriminator 1
 569 002c 072B     		cmp	r3, #7
 570 002e F6DD     		ble	.L38
 571              	.LBE3:
 114:rgb_lcd.c     ****     }
ARM GAS  C:\Users\elias\AppData\Local\Temp\cc6jiUGp.s 			page 14


 115:rgb_lcd.c     ****     i2c_send_byteS(data, 9);
 572              		.loc 1 115 0 is_stmt 1
 573 0030 0921     		movs	r1, #9
 574 0032 01A8     		add	r0, sp, #4
 575 0034 FFF7FEFF 		bl	i2c_send_byteS
 576              	.LVL63:
 116:rgb_lcd.c     **** }
 577              		.loc 1 116 0
 578 0038 04B0     		add	sp, sp, #16
 579              		.cfi_def_cfa_offset 8
 580              		@ sp needed
 581 003a 10BD     		pop	{r4, pc}
 582              		.cfi_endproc
 583              	.LFE74:
 584              		.size	LCD_createChar, .-LCD_createChar
 585              		.section	.text.LCD_autoscroll,"ax",%progbits
 586              		.align	2
 587              		.global	LCD_autoscroll
 588              		.thumb
 589              		.thumb_func
 590              		.type	LCD_autoscroll, %function
 591              	LCD_autoscroll:
 592              	.LFB75:
 117:rgb_lcd.c     **** 
 118:rgb_lcd.c     **** // Habilitar el autodesplazamiento (justificar a la derecha)
 119:rgb_lcd.c     **** void LCD_autoscroll(void) {
 593              		.loc 1 119 0
 594              		.cfi_startproc
 595              		@ args = 0, pretend = 0, frame = 0
 596              		@ frame_needed = 0, uses_anonymous_args = 0
 597 0000 08B5     		push	{r3, lr}
 598              		.cfi_def_cfa_offset 8
 599              		.cfi_offset 3, -8
 600              		.cfi_offset 14, -4
 120:rgb_lcd.c     ****     _displaymode |= LCD_ENTRYSHIFTINCREMENT;
 601              		.loc 1 120 0
 602 0002 054B     		ldr	r3, .L42
 603 0004 1878     		ldrb	r0, [r3]	@ zero_extendqisi2
 604 0006 40F00100 		orr	r0, r0, #1
 605 000a 1870     		strb	r0, [r3]
 121:rgb_lcd.c     ****     LCD_command(LCD_ENTRYMODESET | _displaymode);
 606              		.loc 1 121 0
 607 000c 40F00400 		orr	r0, r0, #4
 608 0010 FFF7FEFF 		bl	LCD_command
 609              	.LVL64:
 610 0014 08BD     		pop	{r3, pc}
 611              	.L43:
 612 0016 00BF     		.align	2
 613              	.L42:
 614 0018 00000000 		.word	_displaymode
 615              		.cfi_endproc
 616              	.LFE75:
 617              		.size	LCD_autoscroll, .-LCD_autoscroll
 618              		.section	.text.LCD_noAutoscroll,"ax",%progbits
 619              		.align	2
 620              		.global	LCD_noAutoscroll
 621              		.thumb
ARM GAS  C:\Users\elias\AppData\Local\Temp\cc6jiUGp.s 			page 15


 622              		.thumb_func
 623              		.type	LCD_noAutoscroll, %function
 624              	LCD_noAutoscroll:
 625              	.LFB76:
 122:rgb_lcd.c     **** }
 123:rgb_lcd.c     **** 
 124:rgb_lcd.c     **** // Deshabilitar el autodesplazamiento (justificar a la izquierda)
 125:rgb_lcd.c     **** void LCD_noAutoscroll(void) {
 626              		.loc 1 125 0
 627              		.cfi_startproc
 628              		@ args = 0, pretend = 0, frame = 0
 629              		@ frame_needed = 0, uses_anonymous_args = 0
 630 0000 08B5     		push	{r3, lr}
 631              		.cfi_def_cfa_offset 8
 632              		.cfi_offset 3, -8
 633              		.cfi_offset 14, -4
 126:rgb_lcd.c     ****     _displaymode &= ~LCD_ENTRYSHIFTINCREMENT;
 634              		.loc 1 126 0
 635 0002 054B     		ldr	r3, .L46
 636 0004 1878     		ldrb	r0, [r3]	@ zero_extendqisi2
 637 0006 00F0FE00 		and	r0, r0, #254
 638 000a 1870     		strb	r0, [r3]
 127:rgb_lcd.c     ****     LCD_command(LCD_ENTRYMODESET | _displaymode);
 639              		.loc 1 127 0
 640 000c 40F00400 		orr	r0, r0, #4
 641 0010 FFF7FEFF 		bl	LCD_command
 642              	.LVL65:
 643 0014 08BD     		pop	{r3, pc}
 644              	.L47:
 645 0016 00BF     		.align	2
 646              	.L46:
 647 0018 00000000 		.word	_displaymode
 648              		.cfi_endproc
 649              	.LFE76:
 650              		.size	LCD_noAutoscroll, .-LCD_noAutoscroll
 651              		.section	.text.LCD_scrollDisplayLeft,"ax",%progbits
 652              		.align	2
 653              		.global	LCD_scrollDisplayLeft
 654              		.thumb
 655              		.thumb_func
 656              		.type	LCD_scrollDisplayLeft, %function
 657              	LCD_scrollDisplayLeft:
 658              	.LFB77:
 128:rgb_lcd.c     **** }
 129:rgb_lcd.c     **** 
 130:rgb_lcd.c     **** 
 131:rgb_lcd.c     **** // Desplazar el contenido de la pantalla a la izquierda sin cambiar la RAM
 132:rgb_lcd.c     **** void LCD_scrollDisplayLeft(void) {
 659              		.loc 1 132 0
 660              		.cfi_startproc
 661              		@ args = 0, pretend = 0, frame = 0
 662              		@ frame_needed = 0, uses_anonymous_args = 0
 663 0000 08B5     		push	{r3, lr}
 664              		.cfi_def_cfa_offset 8
 665              		.cfi_offset 3, -8
 666              		.cfi_offset 14, -4
 133:rgb_lcd.c     ****     LCD_command(LCD_CURSORSHIFT | LCD_DISPLAYMOVE | LCD_MOVELEFT);
ARM GAS  C:\Users\elias\AppData\Local\Temp\cc6jiUGp.s 			page 16


 667              		.loc 1 133 0
 668 0002 1820     		movs	r0, #24
 669 0004 FFF7FEFF 		bl	LCD_command
 670              	.LVL66:
 671 0008 08BD     		pop	{r3, pc}
 672              		.cfi_endproc
 673              	.LFE77:
 674              		.size	LCD_scrollDisplayLeft, .-LCD_scrollDisplayLeft
 675 000a 00BF     		.section	.text.LCD_scrollDisplayRight,"ax",%progbits
 676              		.align	2
 677              		.global	LCD_scrollDisplayRight
 678              		.thumb
 679              		.thumb_func
 680              		.type	LCD_scrollDisplayRight, %function
 681              	LCD_scrollDisplayRight:
 682              	.LFB78:
 134:rgb_lcd.c     **** }
 135:rgb_lcd.c     **** 
 136:rgb_lcd.c     **** // Desplazar el contenido de la pantalla a la derecha sin cambiar la RAM
 137:rgb_lcd.c     **** void LCD_scrollDisplayRight(void) {
 683              		.loc 1 137 0
 684              		.cfi_startproc
 685              		@ args = 0, pretend = 0, frame = 0
 686              		@ frame_needed = 0, uses_anonymous_args = 0
 687 0000 08B5     		push	{r3, lr}
 688              		.cfi_def_cfa_offset 8
 689              		.cfi_offset 3, -8
 690              		.cfi_offset 14, -4
 138:rgb_lcd.c     ****     LCD_command(LCD_CURSORSHIFT | LCD_DISPLAYMOVE | LCD_MOVERIGHT);
 691              		.loc 1 138 0
 692 0002 1C20     		movs	r0, #28
 693 0004 FFF7FEFF 		bl	LCD_command
 694              	.LVL67:
 695 0008 08BD     		pop	{r3, pc}
 696              		.cfi_endproc
 697              	.LFE78:
 698              		.size	LCD_scrollDisplayRight, .-LCD_scrollDisplayRight
 699 000a 00BF     		.section	.text.LCD_leftToRight,"ax",%progbits
 700              		.align	2
 701              		.global	LCD_leftToRight
 702              		.thumb
 703              		.thumb_func
 704              		.type	LCD_leftToRight, %function
 705              	LCD_leftToRight:
 706              	.LFB79:
 139:rgb_lcd.c     **** }
 140:rgb_lcd.c     **** 
 141:rgb_lcd.c     **** // Configurar la dirección del texto de izquierda a derecha
 142:rgb_lcd.c     **** void LCD_leftToRight(void) {
 707              		.loc 1 142 0
 708              		.cfi_startproc
 709              		@ args = 0, pretend = 0, frame = 0
 710              		@ frame_needed = 0, uses_anonymous_args = 0
 711 0000 08B5     		push	{r3, lr}
 712              		.cfi_def_cfa_offset 8
 713              		.cfi_offset 3, -8
 714              		.cfi_offset 14, -4
ARM GAS  C:\Users\elias\AppData\Local\Temp\cc6jiUGp.s 			page 17


 143:rgb_lcd.c     ****     _displaymode |= LCD_ENTRYLEFT;
 715              		.loc 1 143 0
 716 0002 054B     		ldr	r3, .L54
 717 0004 1878     		ldrb	r0, [r3]	@ zero_extendqisi2
 718 0006 40F00200 		orr	r0, r0, #2
 719 000a 1870     		strb	r0, [r3]
 144:rgb_lcd.c     ****     LCD_command(LCD_ENTRYMODESET | _displaymode);
 720              		.loc 1 144 0
 721 000c 40F00400 		orr	r0, r0, #4
 722 0010 FFF7FEFF 		bl	LCD_command
 723              	.LVL68:
 724 0014 08BD     		pop	{r3, pc}
 725              	.L55:
 726 0016 00BF     		.align	2
 727              	.L54:
 728 0018 00000000 		.word	_displaymode
 729              		.cfi_endproc
 730              	.LFE79:
 731              		.size	LCD_leftToRight, .-LCD_leftToRight
 732              		.section	.text.LCD_rightToLeft,"ax",%progbits
 733              		.align	2
 734              		.global	LCD_rightToLeft
 735              		.thumb
 736              		.thumb_func
 737              		.type	LCD_rightToLeft, %function
 738              	LCD_rightToLeft:
 739              	.LFB80:
 145:rgb_lcd.c     **** }
 146:rgb_lcd.c     **** 
 147:rgb_lcd.c     **** // Configurar la dirección del texto de derecha a izquierda
 148:rgb_lcd.c     **** void LCD_rightToLeft(void) {
 740              		.loc 1 148 0
 741              		.cfi_startproc
 742              		@ args = 0, pretend = 0, frame = 0
 743              		@ frame_needed = 0, uses_anonymous_args = 0
 744 0000 08B5     		push	{r3, lr}
 745              		.cfi_def_cfa_offset 8
 746              		.cfi_offset 3, -8
 747              		.cfi_offset 14, -4
 149:rgb_lcd.c     ****     _displaymode &= ~LCD_ENTRYLEFT;
 748              		.loc 1 149 0
 749 0002 054B     		ldr	r3, .L58
 750 0004 1878     		ldrb	r0, [r3]	@ zero_extendqisi2
 751 0006 00F0FD00 		and	r0, r0, #253
 752 000a 1870     		strb	r0, [r3]
 150:rgb_lcd.c     ****     LCD_command(LCD_ENTRYMODESET | _displaymode);
 753              		.loc 1 150 0
 754 000c 40F00400 		orr	r0, r0, #4
 755 0010 FFF7FEFF 		bl	LCD_command
 756              	.LVL69:
 757 0014 08BD     		pop	{r3, pc}
 758              	.L59:
 759 0016 00BF     		.align	2
 760              	.L58:
 761 0018 00000000 		.word	_displaymode
 762              		.cfi_endproc
 763              	.LFE80:
ARM GAS  C:\Users\elias\AppData\Local\Temp\cc6jiUGp.s 			page 18


 764              		.size	LCD_rightToLeft, .-LCD_rightToLeft
 765              		.section	.text.LCD_blinkLED,"ax",%progbits
 766              		.align	2
 767              		.global	LCD_blinkLED
 768              		.thumb
 769              		.thumb_func
 770              		.type	LCD_blinkLED, %function
 771              	LCD_blinkLED:
 772              	.LFB81:
 151:rgb_lcd.c     **** }
 152:rgb_lcd.c     **** 
 153:rgb_lcd.c     **** void LCD_blinkLED(void) {
 773              		.loc 1 153 0
 774              		.cfi_startproc
 775              		@ args = 0, pretend = 0, frame = 0
 776              		@ frame_needed = 0, uses_anonymous_args = 0
 777 0000 08B5     		push	{r3, lr}
 778              		.cfi_def_cfa_offset 8
 779              		.cfi_offset 3, -8
 780              		.cfi_offset 14, -4
 154:rgb_lcd.c     ****     if (rgb_chip_addr == RGB_ADDRESS_V5) {
 781              		.loc 1 154 0
 782 0002 0D4B     		ldr	r3, .L64
 783 0004 1B78     		ldrb	r3, [r3]	@ zero_extendqisi2
 784 0006 302B     		cmp	r3, #48
 785 0008 0CD1     		bne	.L61
 155:rgb_lcd.c     ****         // Adjuntar todos los LED a pwm1
 156:rgb_lcd.c     ****         // El período de parpadeo en segundos = (<reg 1> + 2) * 0.128s
 157:rgb_lcd.c     ****         // Relación encendido/apagado del pwm1 = <reg 2> / 256
 158:rgb_lcd.c     ****         LCD_setReg(0x04, 0x2a);  // 0010 1010
 786              		.loc 1 158 0
 787 000a 2A21     		movs	r1, #42
 788 000c 0420     		movs	r0, #4
 789 000e FFF7FEFF 		bl	LCD_setReg
 790              	.LVL70:
 159:rgb_lcd.c     ****         LCD_setReg(0x01, 0x06);  // parpadeo cada segundo
 791              		.loc 1 159 0
 792 0012 0621     		movs	r1, #6
 793 0014 0120     		movs	r0, #1
 794 0016 FFF7FEFF 		bl	LCD_setReg
 795              	.LVL71:
 160:rgb_lcd.c     ****         LCD_setReg(0x02, 0x7f);  // encendido la mitad del tiempo, apagado la otra mitad
 796              		.loc 1 160 0
 797 001a 7F21     		movs	r1, #127
 798 001c 0220     		movs	r0, #2
 799 001e FFF7FEFF 		bl	LCD_setReg
 800              	.LVL72:
 801 0022 08BD     		pop	{r3, pc}
 802              	.L61:
 161:rgb_lcd.c     ****     } else {
 162:rgb_lcd.c     ****         // El período de parpadeo en segundos = (<reg 7> + 1) / 24
 163:rgb_lcd.c     ****         // Relación encendido/apagado = <reg 6> / 256
 164:rgb_lcd.c     ****         LCD_setReg(0x07, 0x17);  // parpadeo cada segundo
 803              		.loc 1 164 0
 804 0024 1721     		movs	r1, #23
 805 0026 0720     		movs	r0, #7
 806 0028 FFF7FEFF 		bl	LCD_setReg
ARM GAS  C:\Users\elias\AppData\Local\Temp\cc6jiUGp.s 			page 19


 807              	.LVL73:
 165:rgb_lcd.c     ****         LCD_setReg(0x06, 0x7f);  // encendido la mitad del tiempo, apagado la otra mitad
 808              		.loc 1 165 0
 809 002c 7F21     		movs	r1, #127
 810 002e 0620     		movs	r0, #6
 811 0030 FFF7FEFF 		bl	LCD_setReg
 812              	.LVL74:
 813 0034 08BD     		pop	{r3, pc}
 814              	.L65:
 815 0036 00BF     		.align	2
 816              	.L64:
 817 0038 00000000 		.word	rgb_chip_addr
 818              		.cfi_endproc
 819              	.LFE81:
 820              		.size	LCD_blinkLED, .-LCD_blinkLED
 821              		.section	.text.LCD_noBlinkLED,"ax",%progbits
 822              		.align	2
 823              		.global	LCD_noBlinkLED
 824              		.thumb
 825              		.thumb_func
 826              		.type	LCD_noBlinkLED, %function
 827              	LCD_noBlinkLED:
 828              	.LFB82:
 166:rgb_lcd.c     ****     }
 167:rgb_lcd.c     **** }
 168:rgb_lcd.c     **** 
 169:rgb_lcd.c     **** // Desactivar el parpadeo del LED de la retroiluminación
 170:rgb_lcd.c     **** void LCD_noBlinkLED(void) {
 829              		.loc 1 170 0
 830              		.cfi_startproc
 831              		@ args = 0, pretend = 0, frame = 0
 832              		@ frame_needed = 0, uses_anonymous_args = 0
 833 0000 08B5     		push	{r3, lr}
 834              		.cfi_def_cfa_offset 8
 835              		.cfi_offset 3, -8
 836              		.cfi_offset 14, -4
 171:rgb_lcd.c     ****     if (rgb_chip_addr == RGB_ADDRESS_V5) {
 837              		.loc 1 171 0
 838 0002 094B     		ldr	r3, .L70
 839 0004 1B78     		ldrb	r3, [r3]	@ zero_extendqisi2
 840 0006 302B     		cmp	r3, #48
 841 0008 04D1     		bne	.L67
 172:rgb_lcd.c     ****         LCD_setReg(0x04, 0x15);  // 0001 0101
 842              		.loc 1 172 0
 843 000a 1521     		movs	r1, #21
 844 000c 0420     		movs	r0, #4
 845 000e FFF7FEFF 		bl	LCD_setReg
 846              	.LVL75:
 847 0012 08BD     		pop	{r3, pc}
 848              	.L67:
 173:rgb_lcd.c     ****     } else {
 174:rgb_lcd.c     ****         LCD_setReg(0x07, 0x00);  // Desactivar el parpadeo
 849              		.loc 1 174 0
 850 0014 0021     		movs	r1, #0
 851 0016 0720     		movs	r0, #7
 852 0018 FFF7FEFF 		bl	LCD_setReg
 853              	.LVL76:
ARM GAS  C:\Users\elias\AppData\Local\Temp\cc6jiUGp.s 			page 20


 175:rgb_lcd.c     ****         LCD_setReg(0x06, 0xff);  // Encendido total
 854              		.loc 1 175 0
 855 001c FF21     		movs	r1, #255
 856 001e 0620     		movs	r0, #6
 857 0020 FFF7FEFF 		bl	LCD_setReg
 858              	.LVL77:
 859 0024 08BD     		pop	{r3, pc}
 860              	.L71:
 861 0026 00BF     		.align	2
 862              	.L70:
 863 0028 00000000 		.word	rgb_chip_addr
 864              		.cfi_endproc
 865              	.LFE82:
 866              		.size	LCD_noBlinkLED, .-LCD_noBlinkLED
 867              		.section	.text.LCD_noCursor,"ax",%progbits
 868              		.align	2
 869              		.global	LCD_noCursor
 870              		.thumb
 871              		.thumb_func
 872              		.type	LCD_noCursor, %function
 873              	LCD_noCursor:
 874              	.LFB83:
 176:rgb_lcd.c     ****     }
 177:rgb_lcd.c     **** }
 178:rgb_lcd.c     **** // Ocultar el cursor
 179:rgb_lcd.c     **** void LCD_noCursor(void) {
 875              		.loc 1 179 0
 876              		.cfi_startproc
 877              		@ args = 0, pretend = 0, frame = 0
 878              		@ frame_needed = 0, uses_anonymous_args = 0
 879 0000 08B5     		push	{r3, lr}
 880              		.cfi_def_cfa_offset 8
 881              		.cfi_offset 3, -8
 882              		.cfi_offset 14, -4
 180:rgb_lcd.c     ****     _displaycontrol &= ~LCD_CURSORON;
 883              		.loc 1 180 0
 884 0002 054B     		ldr	r3, .L74
 885 0004 1878     		ldrb	r0, [r3]	@ zero_extendqisi2
 886 0006 00F0FD00 		and	r0, r0, #253
 887 000a 1870     		strb	r0, [r3]
 181:rgb_lcd.c     ****     LCD_command(LCD_DISPLAYCONTROL | _displaycontrol);
 888              		.loc 1 181 0
 889 000c 40F00800 		orr	r0, r0, #8
 890 0010 FFF7FEFF 		bl	LCD_command
 891              	.LVL78:
 892 0014 08BD     		pop	{r3, pc}
 893              	.L75:
 894 0016 00BF     		.align	2
 895              	.L74:
 896 0018 00000000 		.word	_displaycontrol
 897              		.cfi_endproc
 898              	.LFE83:
 899              		.size	LCD_noCursor, .-LCD_noCursor
 900              		.section	.text.LCD_cursor,"ax",%progbits
 901              		.align	2
 902              		.global	LCD_cursor
 903              		.thumb
ARM GAS  C:\Users\elias\AppData\Local\Temp\cc6jiUGp.s 			page 21


 904              		.thumb_func
 905              		.type	LCD_cursor, %function
 906              	LCD_cursor:
 907              	.LFB84:
 182:rgb_lcd.c     **** }
 183:rgb_lcd.c     **** 
 184:rgb_lcd.c     **** // Mostrar el cursor
 185:rgb_lcd.c     **** void LCD_cursor(void) {
 908              		.loc 1 185 0
 909              		.cfi_startproc
 910              		@ args = 0, pretend = 0, frame = 0
 911              		@ frame_needed = 0, uses_anonymous_args = 0
 912 0000 08B5     		push	{r3, lr}
 913              		.cfi_def_cfa_offset 8
 914              		.cfi_offset 3, -8
 915              		.cfi_offset 14, -4
 186:rgb_lcd.c     ****     _displaycontrol |= LCD_CURSORON;
 916              		.loc 1 186 0
 917 0002 054B     		ldr	r3, .L78
 918 0004 1878     		ldrb	r0, [r3]	@ zero_extendqisi2
 919 0006 40F00200 		orr	r0, r0, #2
 920 000a 1870     		strb	r0, [r3]
 187:rgb_lcd.c     ****     LCD_command(LCD_DISPLAYCONTROL | _displaycontrol);
 921              		.loc 1 187 0
 922 000c 40F00800 		orr	r0, r0, #8
 923 0010 FFF7FEFF 		bl	LCD_command
 924              	.LVL79:
 925 0014 08BD     		pop	{r3, pc}
 926              	.L79:
 927 0016 00BF     		.align	2
 928              	.L78:
 929 0018 00000000 		.word	_displaycontrol
 930              		.cfi_endproc
 931              	.LFE84:
 932              		.size	LCD_cursor, .-LCD_cursor
 933              		.section	.text.LCD_noBlink,"ax",%progbits
 934              		.align	2
 935              		.global	LCD_noBlink
 936              		.thumb
 937              		.thumb_func
 938              		.type	LCD_noBlink, %function
 939              	LCD_noBlink:
 940              	.LFB85:
 188:rgb_lcd.c     **** }
 189:rgb_lcd.c     **** 
 190:rgb_lcd.c     **** // Apagar el parpadeo del cursor
 191:rgb_lcd.c     **** void LCD_noBlink(void) {
 941              		.loc 1 191 0
 942              		.cfi_startproc
 943              		@ args = 0, pretend = 0, frame = 0
 944              		@ frame_needed = 0, uses_anonymous_args = 0
 945 0000 08B5     		push	{r3, lr}
 946              		.cfi_def_cfa_offset 8
 947              		.cfi_offset 3, -8
 948              		.cfi_offset 14, -4
 192:rgb_lcd.c     ****     _displaycontrol &= ~LCD_BLINKON;
 949              		.loc 1 192 0
ARM GAS  C:\Users\elias\AppData\Local\Temp\cc6jiUGp.s 			page 22


 950 0002 054B     		ldr	r3, .L82
 951 0004 1878     		ldrb	r0, [r3]	@ zero_extendqisi2
 952 0006 00F0FE00 		and	r0, r0, #254
 953 000a 1870     		strb	r0, [r3]
 193:rgb_lcd.c     ****     LCD_command(LCD_DISPLAYCONTROL | _displaycontrol);
 954              		.loc 1 193 0
 955 000c 40F00800 		orr	r0, r0, #8
 956 0010 FFF7FEFF 		bl	LCD_command
 957              	.LVL80:
 958 0014 08BD     		pop	{r3, pc}
 959              	.L83:
 960 0016 00BF     		.align	2
 961              	.L82:
 962 0018 00000000 		.word	_displaycontrol
 963              		.cfi_endproc
 964              	.LFE85:
 965              		.size	LCD_noBlink, .-LCD_noBlink
 966              		.section	.text.LCD_blink,"ax",%progbits
 967              		.align	2
 968              		.global	LCD_blink
 969              		.thumb
 970              		.thumb_func
 971              		.type	LCD_blink, %function
 972              	LCD_blink:
 973              	.LFB86:
 194:rgb_lcd.c     **** }
 195:rgb_lcd.c     **** 
 196:rgb_lcd.c     **** // Encender el parpadeo del cursor
 197:rgb_lcd.c     **** void LCD_blink(void) {
 974              		.loc 1 197 0
 975              		.cfi_startproc
 976              		@ args = 0, pretend = 0, frame = 0
 977              		@ frame_needed = 0, uses_anonymous_args = 0
 978 0000 08B5     		push	{r3, lr}
 979              		.cfi_def_cfa_offset 8
 980              		.cfi_offset 3, -8
 981              		.cfi_offset 14, -4
 198:rgb_lcd.c     ****     _displaycontrol |= LCD_BLINKON;
 982              		.loc 1 198 0
 983 0002 054B     		ldr	r3, .L86
 984 0004 1878     		ldrb	r0, [r3]	@ zero_extendqisi2
 985 0006 40F00100 		orr	r0, r0, #1
 986 000a 1870     		strb	r0, [r3]
 199:rgb_lcd.c     ****     LCD_command(LCD_DISPLAYCONTROL | _displaycontrol);
 987              		.loc 1 199 0
 988 000c 40F00800 		orr	r0, r0, #8
 989 0010 FFF7FEFF 		bl	LCD_command
 990              	.LVL81:
 991 0014 08BD     		pop	{r3, pc}
 992              	.L87:
 993 0016 00BF     		.align	2
 994              	.L86:
 995 0018 00000000 		.word	_displaycontrol
 996              		.cfi_endproc
 997              	.LFE86:
 998              		.size	LCD_blink, .-LCD_blink
 999              		.comm	rgb_chip_addr,1,1
ARM GAS  C:\Users\elias\AppData\Local\Temp\cc6jiUGp.s 			page 23


 1000              		.comm	_currline,1,1
 1001              		.comm	_numlines,1,1
 1002              		.comm	_displaymode,1,1
 1003              		.comm	_displaycontrol,1,1
 1004              		.comm	_displayfunction,1,1
 1005              		.text
 1006              	.Letext0:
 1007              		.file 2 "c:\\program files (x86)\\cypress\\psoc creator\\4.4\\psoc creator\\import\\gnu\\arm\\5.4.
 1008              		.file 3 "c:\\program files (x86)\\cypress\\psoc creator\\4.4\\psoc creator\\import\\gnu\\arm\\5.4.
 1009              		.file 4 "Generated_Source\\PSoC5/core_cm3.h"
 1010              		.file 5 "Generated_Source\\PSoC5/I2C_LCD.h"
 1011              		.file 6 "Generated_Source\\PSoC5/CyLib.h"