ARM GAS  C:\Users\elias\AppData\Local\Temp\ccRYudKt.s 			page 1


   1              		.syntax unified
   2              		.cpu cortex-m3
   3              		.fpu softvfp
   4              		.eabi_attribute 20, 1
   5              		.eabi_attribute 21, 1
   6              		.eabi_attribute 23, 3
   7              		.eabi_attribute 24, 1
   8              		.eabi_attribute 25, 1
   9              		.eabi_attribute 26, 1
  10              		.eabi_attribute 30, 1
  11              		.eabi_attribute 34, 1
  12              		.eabi_attribute 18, 4
  13              		.thumb
  14              		.syntax unified
  15              		.file	"main.c"
  16              		.text
  17              	.Ltext0:
  18              		.cfi_sections	.debug_frame
  19              		.section	.text.getLine,"ax",%progbits
  20              		.align	2
  21              		.global	getLine
  22              		.thumb
  23              		.thumb_func
  24              		.type	getLine, %function
  25              	getLine:
  26              	.LFB64:
  27              		.file 1 "main.c"
   1:main.c        **** #include "project.h"
   2:main.c        **** #include <stdio.h>
   3:main.c        **** #include <stdlib.h>
   4:main.c        **** 
   5:main.c        **** 
   6:main.c        **** #define MAX_BUFF 100
   7:main.c        **** #define MAX_DEGREE 255
   8:main.c        **** char buffer[MAX_BUFF];
   9:main.c        **** char question[MAX_BUFF];
  10:main.c        **** u_int8_t degree;
  11:main.c        **** int8_t coeficiente[MAX_DEGREE];
  12:main.c        **** int16_t x;
  13:main.c        **** int64_t result;
  14:main.c        **** 
  15:main.c        **** //FUNCIONES GENERALES
  16:main.c        **** 
  17:main.c        **** /*
  18:main.c        **** Función que lee una línea por el puerto serial.
  19:main.c        **** Parámetros:
  20:main.c        ****     buf -> dirección del buffer de caracteres recibidos
  21:main.c        ****     tamBuf -> cantidad de posiciones disponible en el buffer
  22:main.c        ****     getchar -> función que lee un caracter del puerto UART
  23:main.c        ****     putchar -> función que escribe un caracter por el puerto UART
  24:main.c        **** Retorno:
  25:main.c        ****     Ninguno
  26:main.c        **** */
  27:main.c        **** void getLine (char *buf, int tamBuf, uint8_t (*getcharl)(), void (*putcharl)(uint8_t)) {
  28              		.loc 1 27 0
  29              		.cfi_startproc
  30              		@ args = 0, pretend = 0, frame = 0
ARM GAS  C:\Users\elias\AppData\Local\Temp\ccRYudKt.s 			page 2


  31              		@ frame_needed = 0, uses_anonymous_args = 0
  32              	.LVL0:
  33 0000 2DE9F843 		push	{r3, r4, r5, r6, r7, r8, r9, lr}
  34              		.cfi_def_cfa_offset 32
  35              		.cfi_offset 3, -32
  36              		.cfi_offset 4, -28
  37              		.cfi_offset 5, -24
  38              		.cfi_offset 6, -20
  39              		.cfi_offset 7, -16
  40              		.cfi_offset 8, -12
  41              		.cfi_offset 9, -8
  42              		.cfi_offset 14, -4
  43 0004 8146     		mov	r9, r0
  44 0006 0E46     		mov	r6, r1
  45 0008 1746     		mov	r7, r2
  46 000a 9846     		mov	r8, r3
  47              	.LVL1:
  28:main.c        ****     int i;
  29:main.c        ****     uint8 c;
  30:main.c        ****    
  31:main.c        ****     for (i = 0; i < tamBuf -1; ) {
  48              		.loc 1 31 0
  49 000c 0024     		movs	r4, #0
  50 000e 08E0     		b	.L3
  51              	.LVL2:
  52              	.L5:
  32:main.c        ****         if ((c = getcharl()) != 0){
  53              		.loc 1 32 0
  54 0010 B847     		blx	r7
  55              	.LVL3:
  56 0012 0546     		mov	r5, r0
  57 0014 28B1     		cbz	r0, .L3
  33:main.c        ****             putcharl(c);
  58              		.loc 1 33 0
  59 0016 C047     		blx	r8
  60              	.LVL4:
  34:main.c        ****             if (c == '\r') break;   // salimos si recibimos un enter
  61              		.loc 1 34 0
  62 0018 0D2D     		cmp	r5, #13
  63 001a 05D0     		beq	.L4
  64              	.LVL5:
  35:main.c        ****             buf[i++] = c;
  65              		.loc 1 35 0
  66 001c 09F80450 		strb	r5, [r9, r4]
  67 0020 0134     		adds	r4, r4, #1
  68              	.LVL6:
  69              	.L3:
  31:main.c        ****         if ((c = getcharl()) != 0){
  70              		.loc 1 31 0 discriminator 1
  71 0022 731E     		subs	r3, r6, #1
  72 0024 9C42     		cmp	r4, r3
  73 0026 F3DB     		blt	.L5
  74              	.L4:
  36:main.c        ****         }
  37:main.c        ****     }
  38:main.c        ****     buf[i] = '\0';
  75              		.loc 1 38 0
ARM GAS  C:\Users\elias\AppData\Local\Temp\ccRYudKt.s 			page 3


  76 0028 0023     		movs	r3, #0
  77 002a 09F80430 		strb	r3, [r9, r4]
  39:main.c        ****     putcharl('\n');
  78              		.loc 1 39 0
  79 002e 0A20     		movs	r0, #10
  80 0030 C047     		blx	r8
  81              	.LVL7:
  82 0032 BDE8F883 		pop	{r3, r4, r5, r6, r7, r8, r9, pc}
  83              		.cfi_endproc
  84              	.LFE64:
  85              		.size	getLine, .-getLine
  86 0036 00BF     		.section	.text.getInt,"ax",%progbits
  87              		.align	2
  88              		.global	getInt
  89              		.thumb
  90              		.thumb_func
  91              		.type	getInt, %function
  92              	getInt:
  93              	.LFB65:
  40:main.c        **** }
  41:main.c        **** 
  42:main.c        **** int16_t getInt(char *buf,u_int max_buf,char *msg)
  43:main.c        **** {
  94              		.loc 1 43 0
  95              		.cfi_startproc
  96              		@ args = 0, pretend = 0, frame = 8
  97              		@ frame_needed = 0, uses_anonymous_args = 0
  98              	.LVL8:
  99 0000 F0B5     		push	{r4, r5, r6, r7, lr}
 100              		.cfi_def_cfa_offset 20
 101              		.cfi_offset 4, -20
 102              		.cfi_offset 5, -16
 103              		.cfi_offset 6, -12
 104              		.cfi_offset 7, -8
 105              		.cfi_offset 14, -4
 106 0002 83B0     		sub	sp, sp, #12
 107              		.cfi_def_cfa_offset 32
 108 0004 0546     		mov	r5, r0
 109 0006 0F46     		mov	r7, r1
 110 0008 1646     		mov	r6, r2
 111              	.LVL9:
  44:main.c        ****     u_int8_t salir = 0;
  45:main.c        ****     int16_t result = 0;
 112              		.loc 1 45 0
 113 000a 0023     		movs	r3, #0
 114 000c ADF80630 		strh	r3, [sp, #6]	@ movhi
 115              	.LVL10:
 116              	.L9:
  46:main.c        ****     do
  47:main.c        ****     {
  48:main.c        ****         PC_PutString(msg);
 117              		.loc 1 48 0
 118 0010 3046     		mov	r0, r6
 119 0012 FFF7FEFF 		bl	PC_PutString
 120              	.LVL11:
  49:main.c        ****         getLine(buf,max_buf,PC_GetChar,PC_PutChar);
 121              		.loc 1 49 0
ARM GAS  C:\Users\elias\AppData\Local\Temp\ccRYudKt.s 			page 4


 122 0016 0C4B     		ldr	r3, .L11
 123 0018 0C4A     		ldr	r2, .L11+4
 124 001a 3946     		mov	r1, r7
 125 001c 2846     		mov	r0, r5
 126 001e FFF7FEFF 		bl	getLine
 127              	.LVL12:
  50:main.c        ****         //u_int16_t aux = strtoul(buf,NULL,10);
  51:main.c        ****         (salir = sscanf(buf,"%hd",&result))?:PC_PutString("Error, valor ingresado no entero\r\n");
 128              		.loc 1 51 0
 129 0022 0DF10602 		add	r2, sp, #6
 130 0026 0A49     		ldr	r1, .L11+8
 131 0028 2846     		mov	r0, r5
 132 002a FFF7FEFF 		bl	sscanf
 133              	.LVL13:
 134 002e C4B2     		uxtb	r4, r0
 135              	.LVL14:
 136 0030 14B9     		cbnz	r4, .L8
 137              		.loc 1 51 0 is_stmt 0 discriminator 1
 138 0032 0848     		ldr	r0, .L11+12
 139 0034 FFF7FEFF 		bl	PC_PutString
 140              	.LVL15:
 141              	.L8:
  52:main.c        ****     }while(salir != 1);
 142              		.loc 1 52 0 is_stmt 1
 143 0038 012C     		cmp	r4, #1
 144 003a E9D1     		bne	.L9
  53:main.c        ****     buf[0] = '\0';
 145              		.loc 1 53 0
 146 003c 0023     		movs	r3, #0
 147 003e 2B70     		strb	r3, [r5]
  54:main.c        ****     return result;
  55:main.c        **** }
 148              		.loc 1 55 0
 149 0040 BDF90600 		ldrsh	r0, [sp, #6]
 150 0044 03B0     		add	sp, sp, #12
 151              		.cfi_def_cfa_offset 20
 152              		@ sp needed
 153 0046 F0BD     		pop	{r4, r5, r6, r7, pc}
 154              	.LVL16:
 155              	.L12:
 156              		.align	2
 157              	.L11:
 158 0048 00000000 		.word	PC_PutChar
 159 004c 00000000 		.word	PC_GetChar
 160 0050 00000000 		.word	.LC0
 161 0054 04000000 		.word	.LC1
 162              		.cfi_endproc
 163              	.LFE65:
 164              		.size	getInt, .-getInt
 165              		.section	.text.power,"ax",%progbits
 166              		.align	2
 167              		.global	power
 168              		.thumb
 169              		.thumb_func
 170              		.type	power, %function
 171              	power:
 172              	.LFB66:
ARM GAS  C:\Users\elias\AppData\Local\Temp\ccRYudKt.s 			page 5


  56:main.c        **** int64_t power (int16_t x,uint8_t n) {     //Funcion que calcula la potencia
 173              		.loc 1 56 0
 174              		.cfi_startproc
 175              		@ args = 0, pretend = 0, frame = 0
 176              		@ frame_needed = 0, uses_anonymous_args = 0
 177              		@ link register save eliminated.
 178              	.LVL17:
  57:main.c        ****     
  58:main.c        ****     if(n == 0){
 179              		.loc 1 58 0
 180 0000 C1B1     		cbz	r1, .L18
  56:main.c        **** int64_t power (int16_t x,uint8_t n) {     //Funcion que calcula la potencia
 181              		.loc 1 56 0
 182 0002 70B4     		push	{r4, r5, r6}
 183              		.cfi_def_cfa_offset 12
 184              		.cfi_offset 4, -12
 185              		.cfi_offset 5, -8
 186              		.cfi_offset 6, -4
 187 0004 0E46     		mov	r6, r1
  59:main.c        ****         return 1;
  60:main.c        ****     }
  61:main.c        ****     if(n == 1){
 188              		.loc 1 61 0
 189 0006 0129     		cmp	r1, #1
 190 0008 02D1     		bne	.L15
  62:main.c        ****         return x;
 191              		.loc 1 62 0
 192 000a 00B2     		sxth	r0, r0
 193 000c C117     		asrs	r1, r0, #31
 194              	.LVL18:
 195 000e 14E0     		b	.L14
 196              	.LVL19:
 197              	.L15:
  63:main.c        ****     }
  64:main.c        ****     int64_t result = x;
 198              		.loc 1 64 0
 199 0010 04B2     		sxth	r4, r0
 200 0012 E517     		asrs	r5, r4, #31
 201              	.LVL20:
 202 0014 2046     		mov	r0, r4
 203 0016 2946     		mov	r1, r5
 204              	.LVL21:
 205              	.LBB2:
  65:main.c        ****     for(uint8_t i=1; i<n; i++){
 206              		.loc 1 65 0
 207 0018 0123     		movs	r3, #1
 208 001a 08E0     		b	.L16
 209              	.LVL22:
 210              	.L17:
  66:main.c        ****         result*= x;
 211              		.loc 1 66 0 discriminator 3
 212 001c 00FB05F2 		mul	r2, r0, r5
 213 0020 04FB0122 		mla	r2, r4, r1, r2
 214 0024 A0FB0401 		umull	r0, r1, r0, r4
 215              	.LVL23:
 216 0028 1144     		add	r1, r1, r2
 217              	.LVL24:
ARM GAS  C:\Users\elias\AppData\Local\Temp\ccRYudKt.s 			page 6


  65:main.c        ****     for(uint8_t i=1; i<n; i++){
 218              		.loc 1 65 0 discriminator 3
 219 002a 0133     		adds	r3, r3, #1
 220              	.LVL25:
 221 002c DBB2     		uxtb	r3, r3
 222              	.LVL26:
 223              	.L16:
  65:main.c        ****     for(uint8_t i=1; i<n; i++){
 224              		.loc 1 65 0 is_stmt 0 discriminator 1
 225 002e B342     		cmp	r3, r6
 226 0030 F4D3     		bcc	.L17
 227 0032 02E0     		b	.L14
 228              	.LVL27:
 229              	.L18:
 230              		.cfi_def_cfa_offset 0
 231              		.cfi_restore 4
 232              		.cfi_restore 5
 233              		.cfi_restore 6
 234              	.LBE2:
  59:main.c        ****     }
 235              		.loc 1 59 0 is_stmt 1
 236 0034 0120     		movs	r0, #1
 237              	.LVL28:
 238 0036 0021     		movs	r1, #0
 239              	.LVL29:
 240 0038 7047     		bx	lr
 241              	.L14:
 242              		.cfi_def_cfa_offset 12
 243              		.cfi_offset 4, -12
 244              		.cfi_offset 5, -8
 245              		.cfi_offset 6, -4
  67:main.c        ****     }
  68:main.c        ****     return result;
  69:main.c        **** }
 246              		.loc 1 69 0
 247 003a 70BC     		pop	{r4, r5, r6}
 248              		.cfi_restore 6
 249              		.cfi_restore 5
 250              		.cfi_restore 4
 251              		.cfi_def_cfa_offset 0
 252 003c 7047     		bx	lr
 253              		.cfi_endproc
 254              	.LFE66:
 255              		.size	power, .-power
 256 003e 00BF     		.section	.text.getDegree,"ax",%progbits
 257              		.align	2
 258              		.global	getDegree
 259              		.thumb
 260              		.thumb_func
 261              		.type	getDegree, %function
 262              	getDegree:
 263              	.LFB67:
  70:main.c        **** 
  71:main.c        **** 
  72:main.c        **** //FUNCIONES PARA EL PROGRAMA 
  73:main.c        **** void getDegree()
  74:main.c        **** {
ARM GAS  C:\Users\elias\AppData\Local\Temp\ccRYudKt.s 			page 7


 264              		.loc 1 74 0
 265              		.cfi_startproc
 266              		@ args = 0, pretend = 0, frame = 0
 267              		@ frame_needed = 0, uses_anonymous_args = 0
 268 0000 10B5     		push	{r4, lr}
 269              		.cfi_def_cfa_offset 8
 270              		.cfi_offset 4, -8
 271              		.cfi_offset 14, -4
 272              	.LVL30:
  75:main.c        ****     u_int8_t salir = 0;
 273              		.loc 1 75 0
 274 0002 0024     		movs	r4, #0
 275              	.LVL31:
 276              	.L23:
  76:main.c        ****     do
  77:main.c        ****     {   
  78:main.c        ****         degree = (u_int8_t)getInt(buffer,MAX_BUFF-1,"Grado del polinomio?\r\nGrado = ");
 277              		.loc 1 78 0
 278 0004 084A     		ldr	r2, .L26
 279 0006 6321     		movs	r1, #99
 280 0008 0848     		ldr	r0, .L26+4
 281 000a FFF7FEFF 		bl	getInt
 282              	.LVL32:
 283 000e C0B2     		uxtb	r0, r0
 284 0010 074B     		ldr	r3, .L26+8
 285 0012 1870     		strb	r0, [r3]
  79:main.c        ****         if (0<= degree && degree<=MAX_DEGREE-1) //creo que no es necesario pero bueno
 286              		.loc 1 79 0
 287 0014 FF28     		cmp	r0, #255
 288 0016 03D1     		bne	.L24
  80:main.c        ****             salir = 1;
  81:main.c        ****         else
  82:main.c        ****             PC_PutString("Error, valor ingresado no valido");
 289              		.loc 1 82 0
 290 0018 0648     		ldr	r0, .L26+12
 291 001a FFF7FEFF 		bl	PC_PutString
 292              	.LVL33:
 293 001e 00E0     		b	.L22
 294              	.L24:
  80:main.c        ****             salir = 1;
 295              		.loc 1 80 0
 296 0020 0124     		movs	r4, #1
 297              	.LVL34:
 298              	.L22:
  83:main.c        ****     }while (salir != 1);
 299              		.loc 1 83 0
 300 0022 002C     		cmp	r4, #0
 301 0024 EED0     		beq	.L23
  84:main.c        ****     
  85:main.c        **** }
 302              		.loc 1 85 0
 303 0026 10BD     		pop	{r4, pc}
 304              	.LVL35:
 305              	.L27:
 306              		.align	2
 307              	.L26:
 308 0028 28000000 		.word	.LC2
ARM GAS  C:\Users\elias\AppData\Local\Temp\ccRYudKt.s 			page 8


 309 002c 00000000 		.word	buffer
 310 0030 00000000 		.word	degree
 311 0034 48000000 		.word	.LC3
 312              		.cfi_endproc
 313              	.LFE67:
 314              		.size	getDegree, .-getDegree
 315              		.section	.text.getCoef,"ax",%progbits
 316              		.align	2
 317              		.global	getCoef
 318              		.thumb
 319              		.thumb_func
 320              		.type	getCoef, %function
 321              	getCoef:
 322              	.LFB68:
  86:main.c        **** 
  87:main.c        **** void getCoef()
  88:main.c        **** {
 323              		.loc 1 88 0
 324              		.cfi_startproc
 325              		@ args = 0, pretend = 0, frame = 0
 326              		@ frame_needed = 0, uses_anonymous_args = 0
 327 0000 30B5     		push	{r4, r5, lr}
 328              		.cfi_def_cfa_offset 12
 329              		.cfi_offset 4, -12
 330              		.cfi_offset 5, -8
 331              		.cfi_offset 14, -4
 332 0002 83B0     		sub	sp, sp, #12
 333              		.cfi_def_cfa_offset 24
 334              	.LVL36:
 335              	.LBB3:
  89:main.c        ****     u_int8_t aux = 0;
  90:main.c        ****     for(u_int8_t i = degree;;)
 336              		.loc 1 90 0
 337 0004 0B4B     		ldr	r3, .L32
 338 0006 1C78     		ldrb	r4, [r3]	@ zero_extendqisi2
 339              	.LVL37:
 340              	.L30:
  91:main.c        ****     {
  92:main.c        ****         snprintf(question,MAX_BUFF ,"Coeficiente de x^%i?\r\nC_%i = ",i,i);
 341              		.loc 1 92 0
 342 0008 0B4D     		ldr	r5, .L32+4
 343 000a 0094     		str	r4, [sp]
 344 000c 2346     		mov	r3, r4
 345 000e 0B4A     		ldr	r2, .L32+8
 346 0010 6421     		movs	r1, #100
 347 0012 2846     		mov	r0, r5
 348 0014 FFF7FEFF 		bl	snprintf
 349              	.LVL38:
  93:main.c        ****         aux = (u_int8_t)getInt(buffer,MAX_BUFF,question);
 350              		.loc 1 93 0
 351 0018 2A46     		mov	r2, r5
 352 001a 6421     		movs	r1, #100
 353 001c 0848     		ldr	r0, .L32+12
 354 001e FFF7FEFF 		bl	getInt
 355              	.LVL39:
  94:main.c        ****         if(0 <= aux && aux <= MAX_DEGREE)
  95:main.c        ****         {
ARM GAS  C:\Users\elias\AppData\Local\Temp\ccRYudKt.s 			page 9


  96:main.c        ****             coeficiente[i] = aux;
 356              		.loc 1 96 0
 357 0022 084B     		ldr	r3, .L32+16
 358 0024 1855     		strb	r0, [r3, r4]
  97:main.c        ****             if(i == 0) break;
 359              		.loc 1 97 0
 360 0026 14B1     		cbz	r4, .L28
  98:main.c        ****             else i--;
 361              		.loc 1 98 0
 362 0028 013C     		subs	r4, r4, #1
 363              	.LVL40:
 364 002a E4B2     		uxtb	r4, r4
 365              	.LVL41:
  99:main.c        ****         }
 100:main.c        ****     }
 366              		.loc 1 100 0
 367 002c ECE7     		b	.L30
 368              	.L28:
 369              	.LBE3:
 101:main.c        **** }
 370              		.loc 1 101 0
 371 002e 03B0     		add	sp, sp, #12
 372              		.cfi_def_cfa_offset 12
 373              		@ sp needed
 374 0030 30BD     		pop	{r4, r5, pc}
 375              	.LVL42:
 376              	.L33:
 377 0032 00BF     		.align	2
 378              	.L32:
 379 0034 00000000 		.word	degree
 380 0038 00000000 		.word	question
 381 003c 6C000000 		.word	.LC4
 382 0040 00000000 		.word	buffer
 383 0044 00000000 		.word	coeficiente
 384              		.cfi_endproc
 385              	.LFE68:
 386              		.size	getCoef, .-getCoef
 387              		.section	.text.evalX,"ax",%progbits
 388              		.align	2
 389              		.global	evalX
 390              		.thumb
 391              		.thumb_func
 392              		.type	evalX, %function
 393              	evalX:
 394              	.LFB69:
 102:main.c        **** 
 103:main.c        **** void evalX()
 104:main.c        **** {
 395              		.loc 1 104 0
 396              		.cfi_startproc
 397              		@ args = 0, pretend = 0, frame = 0
 398              		@ frame_needed = 0, uses_anonymous_args = 0
 399 0000 70B5     		push	{r4, r5, r6, lr}
 400              		.cfi_def_cfa_offset 16
 401              		.cfi_offset 4, -16
 402              		.cfi_offset 5, -12
 403              		.cfi_offset 6, -8
ARM GAS  C:\Users\elias\AppData\Local\Temp\ccRYudKt.s 			page 10


 404              		.cfi_offset 14, -4
 405 0002 82B0     		sub	sp, sp, #8
 406              		.cfi_def_cfa_offset 24
 407              	.L38:
 105:main.c        ****     do
 106:main.c        ****     {
 107:main.c        ****         x = getInt(buffer,MAX_BUFF,"Punto a evaluar?\r\nx = ");
 408              		.loc 1 107 0
 409 0004 1F4A     		ldr	r2, .L40
 410 0006 6421     		movs	r1, #100
 411 0008 1F48     		ldr	r0, .L40+4
 412 000a FFF7FEFF 		bl	getInt
 413              	.LVL43:
 414 000e 1F4B     		ldr	r3, .L40+8
 415 0010 1880     		strh	r0, [r3]	@ movhi
 108:main.c        ****         if(x == -999) break; //salir de eval
 416              		.loc 1 108 0
 417 0012 1F4B     		ldr	r3, .L40+12
 418 0014 9842     		cmp	r0, r3
 419 0016 32D0     		beq	.L34
 420 0018 0546     		mov	r5, r0
 109:main.c        ****         
 110:main.c        ****         result = 0;
 421              		.loc 1 110 0
 422 001a 0020     		movs	r0, #0
 423 001c 0021     		movs	r1, #0
 424 001e 1D4B     		ldr	r3, .L40+16
 425 0020 C3E90001 		strd	r0, [r3]
 426              	.LBB4:
 111:main.c        ****         for(u_int8_t i = degree;; i--)
 427              		.loc 1 111 0
 428 0024 1C4B     		ldr	r3, .L40+20
 429 0026 1C78     		ldrb	r4, [r3]	@ zero_extendqisi2
 430              	.LVL44:
 431              	.L37:
 112:main.c        ****         {
 113:main.c        ****             result += coeficiente[i]*power(x,i);
 432              		.loc 1 113 0
 433 0028 1C4B     		ldr	r3, .L40+24
 434 002a 1E57     		ldrsb	r6, [r3, r4]
 435 002c 2146     		mov	r1, r4
 436 002e 2846     		mov	r0, r5
 437 0030 FFF7FEFF 		bl	power
 438              	.LVL45:
 439 0034 72B2     		sxtb	r2, r6
 440 0036 D317     		asrs	r3, r2, #31
 441 0038 01FB02F1 		mul	r1, r1, r2
 442 003c 00FB0311 		mla	r1, r0, r3, r1
 443 0040 A2FB0023 		umull	r2, r3, r2, r0
 444 0044 0B44     		add	r3, r3, r1
 445 0046 134E     		ldr	r6, .L40+16
 446 0048 D6E90001 		ldrd	r0, [r6]
 447 004c 1218     		adds	r2, r2, r0
 448 004e 4B41     		adcs	r3, r3, r1
 449 0050 C6E90023 		strd	r2, [r6]
 114:main.c        ****             if(i == 0) break;
 450              		.loc 1 114 0
ARM GAS  C:\Users\elias\AppData\Local\Temp\ccRYudKt.s 			page 11


 451 0054 14B1     		cbz	r4, .L36
 111:main.c        ****         for(u_int8_t i = degree;; i--)
 452              		.loc 1 111 0
 453 0056 013C     		subs	r4, r4, #1
 454              	.LVL46:
 455 0058 E4B2     		uxtb	r4, r4
 456              	.LVL47:
 115:main.c        ****         }
 457              		.loc 1 115 0
 458 005a E5E7     		b	.L37
 459              	.L36:
 460              	.LBE4:
 116:main.c        ****         snprintf(buffer,MAX_BUFF ,"f(%i) = %i\r\n",x,(int)result);
 461              		.loc 1 116 0
 462 005c 0A4C     		ldr	r4, .L40+4
 463              	.LVL48:
 464 005e 0092     		str	r2, [sp]
 465 0060 2B46     		mov	r3, r5
 466 0062 0F4A     		ldr	r2, .L40+28
 467 0064 6421     		movs	r1, #100
 468 0066 2046     		mov	r0, r4
 469 0068 FFF7FEFF 		bl	snprintf
 470              	.LVL49:
 117:main.c        ****         PC_PutString(buffer);
 471              		.loc 1 117 0
 472 006c 2046     		mov	r0, r4
 473 006e FFF7FEFF 		bl	PC_PutString
 474              	.LVL50:
 118:main.c        ****     }while(x != -999);
 475              		.loc 1 118 0
 476 0072 064B     		ldr	r3, .L40+8
 477 0074 B3F90020 		ldrsh	r2, [r3]
 478 0078 054B     		ldr	r3, .L40+12
 479 007a 9A42     		cmp	r2, r3
 480 007c C2D1     		bne	.L38
 481              	.L34:
 119:main.c        **** }
 482              		.loc 1 119 0
 483 007e 02B0     		add	sp, sp, #8
 484              		.cfi_def_cfa_offset 16
 485              		@ sp needed
 486 0080 70BD     		pop	{r4, r5, r6, pc}
 487              	.L41:
 488 0082 00BF     		.align	2
 489              	.L40:
 490 0084 8C000000 		.word	.LC5
 491 0088 00000000 		.word	buffer
 492 008c 00000000 		.word	x
 493 0090 19FCFFFF 		.word	-999
 494 0094 00000000 		.word	result
 495 0098 00000000 		.word	degree
 496 009c 00000000 		.word	coeficiente
 497 00a0 A4000000 		.word	.LC6
 498              		.cfi_endproc
 499              	.LFE69:
 500              		.size	evalX, .-evalX
 501              		.section	.text.main,"ax",%progbits
ARM GAS  C:\Users\elias\AppData\Local\Temp\ccRYudKt.s 			page 12


 502              		.align	2
 503              		.global	main
 504              		.thumb
 505              		.thumb_func
 506              		.type	main, %function
 507              	main:
 508              	.LFB70:
 120:main.c        **** 
 121:main.c        **** int main(void)
 122:main.c        **** {
 509              		.loc 1 122 0
 510              		.cfi_startproc
 511              		@ Volatile: function does not return.
 512              		@ args = 0, pretend = 0, frame = 0
 513              		@ frame_needed = 0, uses_anonymous_args = 0
 514 0000 08B5     		push	{r3, lr}
 515              		.cfi_def_cfa_offset 8
 516              		.cfi_offset 3, -8
 517              		.cfi_offset 14, -4
 123:main.c        ****     CyGlobalIntEnable; /* Enable global interrupts. */
 518              		.loc 1 123 0
 519              		.syntax unified
 520              	@ 123 "main.c" 1
 521 0002 62B6     		CPSIE   i
 522              	@ 0 "" 2
 124:main.c        **** 
 125:main.c        ****     /* Place your initialization/startup code here (e.g. MyInst_Start()) */
 126:main.c        ****     PC_Start();
 523              		.loc 1 126 0
 524              		.thumb
 525              		.syntax unified
 526 0004 FFF7FEFF 		bl	PC_Start
 527              	.LVL51:
 528              	.L43:
 127:main.c        ****     for(;;)
 128:main.c        ****     {
 129:main.c        ****         getDegree();
 529              		.loc 1 129 0 discriminator 1
 530 0008 FFF7FEFF 		bl	getDegree
 531              	.LVL52:
 130:main.c        ****         getCoef();
 532              		.loc 1 130 0 discriminator 1
 533 000c FFF7FEFF 		bl	getCoef
 534              	.LVL53:
 131:main.c        ****         evalX();
 535              		.loc 1 131 0 discriminator 1
 536 0010 FFF7FEFF 		bl	evalX
 537              	.LVL54:
 538 0014 F8E7     		b	.L43
 539              		.cfi_endproc
 540              	.LFE70:
 541              		.size	main, .-main
 542              		.comm	result,8,8
 543              		.comm	x,2,2
 544              		.comm	coeficiente,255,4
 545              		.comm	degree,1,1
 546              		.comm	question,100,4
ARM GAS  C:\Users\elias\AppData\Local\Temp\ccRYudKt.s 			page 13


 547              		.comm	buffer,100,4
 548 0016 00BF     		.section	.rodata.str1.4,"aMS",%progbits,1
 549              		.align	2
 550              	.LC0:
 551 0000 25686400 		.ascii	"%hd\000"
 552              	.LC1:
 553 0004 4572726F 		.ascii	"Error, valor ingresado no entero\015\012\000"
 553      722C2076 
 553      616C6F72 
 553      20696E67 
 553      72657361 
 554 0027 00       		.space	1
 555              	.LC2:
 556 0028 47726164 		.ascii	"Grado del polinomio?\015\012Grado = \000"
 556      6F206465 
 556      6C20706F 
 556      6C696E6F 
 556      6D696F3F 
 557 0047 00       		.space	1
 558              	.LC3:
 559 0048 4572726F 		.ascii	"Error, valor ingresado no valido\000"
 559      722C2076 
 559      616C6F72 
 559      20696E67 
 559      72657361 
 560 0069 000000   		.space	3
 561              	.LC4:
 562 006c 436F6566 		.ascii	"Coeficiente de x^%i?\015\012C_%i = \000"
 562      69636965 
 562      6E746520 
 562      64652078 
 562      5E25693F 
 563 008a 0000     		.space	2
 564              	.LC5:
 565 008c 50756E74 		.ascii	"Punto a evaluar?\015\012x = \000"
 565      6F206120 
 565      6576616C 
 565      7561723F 
 565      0D0A7820 
 566 00a3 00       		.space	1
 567              	.LC6:
 568 00a4 66282569 		.ascii	"f(%i) = %i\015\012\000"
 568      29203D20 
 568      25690D0A 
 568      00
 569              		.text
 570              	.Letext0:
 571              		.file 2 "c:\\program files (x86)\\cypress\\psoc creator\\4.4\\psoc creator\\import\\gnu\\arm\\5.4.
 572              		.file 3 "c:\\program files (x86)\\cypress\\psoc creator\\4.4\\psoc creator\\import\\gnu\\arm\\5.4.
 573              		.file 4 "Generated_Source\\PSoC5/cytypes.h"
 574              		.file 5 "c:\\program files (x86)\\cypress\\psoc creator\\4.4\\psoc creator\\import\\gnu\\arm\\5.4.
 575              		.file 6 "Generated_Source\\PSoC5/core_cm3.h"
 576              		.file 7 "Generated_Source\\PSoC5/PC.h"
 577              		.file 8 "c:\\program files (x86)\\cypress\\psoc creator\\4.4\\psoc creator\\import\\gnu\\arm\\5.4.